GAS LISTING /tmp/ccczQxbi.s 			page 1


   1               		.file	"ucos_ii.c"
   2               	__SREG__ = 0x3f
   3               	__SP_H__ = 0x3e
   4               	__SP_L__ = 0x3d
   5               	__CCP__  = 0x34
   6               	__tmp_reg__ = 0
   7               	__zero_reg__ = 1
   8               		.global __do_copy_data
   9               		.global __do_clear_bss
  10               		.text
  11               	.global	OSIntEnter
  12               		.type	OSIntEnter, @function
  13               	OSIntEnter:
  14               	/* prologue: function */
  15               	/* frame size = 0 */
  16 0000 8091 0000 		lds r24,OSRunning
  17 0004 8130      		cpi r24,lo8(1)
  18 0006 01F0      		breq .L5
  19               	.L3:
  20 0008 0895      		ret
  21               	.L5:
  22 000a 8091 0000 		lds r24,OSIntNesting
  23 000e 8F3F      		cpi r24,lo8(-1)
  24 0010 01F0      		breq .L3
  25 0012 8F5F      		subi r24,lo8(-(1))
  26 0014 8093 0000 		sts OSIntNesting,r24
  27 0018 0895      		ret
  28               		.size	OSIntEnter, .-OSIntEnter
  29               	.global	OSSchedLock
  30               		.type	OSSchedLock, @function
  31               	OSSchedLock:
  32               	/* prologue: function */
  33               	/* frame size = 0 */
  34 001a 8091 0000 		lds r24,OSRunning
  35 001e 8130      		cpi r24,lo8(1)
  36 0020 01F0      		breq .L10
  37 0022 0895      		ret
  38               	.L10:
  39               	/* #APP */
  40               	 ;  222 "/home/thinklabs/Micrium/Software/uCOS-II/Source/os_core.c" 1
  41 0024 F894      		cli
  42               	 ;  0 "" 2
  43               	/* #NOAPP */
  44 0026 8091 0000 		lds r24,OSLockNesting
  45 002a 8F3F      		cpi r24,lo8(-1)
  46 002c 01F0      		breq .L8
  47 002e 8F5F      		subi r24,lo8(-(1))
  48 0030 8093 0000 		sts OSLockNesting,r24
  49               	.L8:
  50               	/* #APP */
  51               	 ;  226 "/home/thinklabs/Micrium/Software/uCOS-II/Source/os_core.c" 1
  52 0034 7894      		sei
  53               	 ;  0 "" 2
  54               	/* #NOAPP */
  55 0036 0895      		ret
  56               		.size	OSSchedLock, .-OSSchedLock
  57               	.global	OSVersion
GAS LISTING /tmp/ccczQxbi.s 			page 2


  58               		.type	OSVersion, @function
  59               	OSVersion:
  60               	/* prologue: function */
  61               	/* frame size = 0 */
  62 0038 8CEF      		ldi r24,lo8(252)
  63 003a 90E0      		ldi r25,hi8(252)
  64               	/* epilogue start */
  65 003c 0895      		ret
  66               		.size	OSVersion, .-OSVersion
  67               	.global	OS_Dummy
  68               		.type	OS_Dummy, @function
  69               	OS_Dummy:
  70               	/* prologue: function */
  71               	/* frame size = 0 */
  72               	/* epilogue start */
  73 003e 0895      		ret
  74               		.size	OS_Dummy, .-OS_Dummy
  75               	.global	OSMemCreate
  76               		.type	OSMemCreate, @function
  77               	OSMemCreate:
  78 0040 2F92      		push r2
  79 0042 3F92      		push r3
  80 0044 4F92      		push r4
  81 0046 5F92      		push r5
  82 0048 6F92      		push r6
  83 004a 7F92      		push r7
  84 004c 8F92      		push r8
  85 004e 9F92      		push r9
  86 0050 AF92      		push r10
  87 0052 BF92      		push r11
  88 0054 CF92      		push r12
  89 0056 DF92      		push r13
  90 0058 EF92      		push r14
  91 005a FF92      		push r15
  92 005c 0F93      		push r16
  93 005e 1F93      		push r17
  94 0060 CF93      		push r28
  95 0062 DF93      		push r29
  96               	/* prologue: function */
  97               	/* frame size = 0 */
  98 0064 4C01      		movw r8,r24
  99 0066 5A01      		movw r10,r20
 100 0068 6B01      		movw r12,r22
 101 006a 2801      		movw r4,r16
 102 006c 3901      		movw r6,r18
 103 006e 1701      		movw r2,r14
 104               	/* #APP */
 105               	 ;  73 "/home/thinklabs/Micrium/Software/uCOS-II/Source/os_mem.c" 1
 106 0070 F894      		cli
 107               	 ;  0 "" 2
 108               	/* #NOAPP */
 109 0072 6091 0000 		lds r22,OSMemFreeList
 110 0076 7091 0000 		lds r23,(OSMemFreeList)+1
 111 007a 6115      		cp r22,__zero_reg__
 112 007c 7105      		cpc r23,__zero_reg__
 113 007e 01F0      		breq .L16
 114 0080 DB01      		movw r26,r22
GAS LISTING /tmp/ccczQxbi.s 			page 3


 115 0082 1296      		adiw r26,2
 116 0084 8D91      		ld r24,X+
 117 0086 9C91      		ld r25,X
 118 0088 1397      		sbiw r26,2+1
 119 008a 9093 0000 		sts (OSMemFreeList)+1,r25
 120 008e 8093 0000 		sts OSMemFreeList,r24
 121               	.L16:
 122               	/* #APP */
 123               	 ;  78 "/home/thinklabs/Micrium/Software/uCOS-II/Source/os_mem.c" 1
 124 0092 7894      		sei
 125               	 ;  0 "" 2
 126               	/* #NOAPP */
 127 0094 6115      		cp r22,__zero_reg__
 128 0096 7105      		cpc r23,__zero_reg__
 129 0098 01F4      		brne .+2
 130 009a 00C0      		rjmp .L23
 131 009c E401      		movw r28,r8
 132 009e A601      		movw r20,r12
 133 00a0 9501      		movw r18,r10
 134 00a2 2150      		subi r18,lo8(-(-1))
 135 00a4 3040      		sbci r19,hi8(-(-1))
 136 00a6 4040      		sbci r20,hlo8(-(-1))
 137 00a8 5040      		sbci r21,hhi8(-(-1))
 138 00aa 01F0      		breq .L19
 139 00ac 7201      		movw r14,r4
 140 00ae 8401      		movw r16,r8
 141 00b0 040D      		add r16,r4
 142 00b2 151D      		adc r17,r5
 143 00b4 F801      		movw r30,r16
 144 00b6 80E0      		ldi r24,lo8(0)
 145 00b8 90E0      		ldi r25,hi8(0)
 146 00ba A0E0      		ldi r26,hlo8(0)
 147 00bc B0E0      		ldi r27,hhi8(0)
 148               	.L20:
 149 00be F983      		std Y+1,r31
 150 00c0 E883      		st Y,r30
 151 00c2 EF01      		movw r28,r30
 152 00c4 EE0D      		add r30,r14
 153 00c6 FF1D      		adc r31,r15
 154 00c8 0196      		adiw r24,1
 155 00ca A11D      		adc r26,__zero_reg__
 156 00cc B11D      		adc r27,__zero_reg__
 157 00ce 8217      		cp r24,r18
 158 00d0 9307      		cpc r25,r19
 159 00d2 A407      		cpc r26,r20
 160 00d4 B507      		cpc r27,r21
 161 00d6 00F0      		brlo .L20
 162 00d8 8EEF      		ldi r24,lo8(-2)
 163 00da 9FEF      		ldi r25,hi8(-2)
 164 00dc AFEF      		ldi r26,hlo8(-2)
 165 00de BFEF      		ldi r27,hhi8(-2)
 166 00e0 A80E      		add r10,r24
 167 00e2 B91E      		adc r11,r25
 168 00e4 CA1E      		adc r12,r26
 169 00e6 DB1E      		adc r13,r27
 170 00e8 EA9C      		mul r14,r10
 171 00ea E001      		movw r28,r0
GAS LISTING /tmp/ccczQxbi.s 			page 4


 172 00ec EB9C      		mul r14,r11
 173 00ee D00D      		add r29,r0
 174 00f0 FA9C      		mul r15,r10
 175 00f2 D00D      		add r29,r0
 176 00f4 1124      		clr r1
 177 00f6 82E0      		ldi r24,lo8(2)
 178 00f8 90E0      		ldi r25,hi8(2)
 179 00fa A0E0      		ldi r26,hlo8(2)
 180 00fc B0E0      		ldi r27,hhi8(2)
 181 00fe A80E      		add r10,r24
 182 0100 B91E      		adc r11,r25
 183 0102 CA1E      		adc r12,r26
 184 0104 DB1E      		adc r13,r27
 185 0106 C00F      		add r28,r16
 186 0108 D11F      		adc r29,r17
 187               	.L19:
 188 010a 1982      		std Y+1,__zero_reg__
 189 010c 1882      		st Y,__zero_reg__
 190 010e DB01      		movw r26,r22
 191 0110 1196      		adiw r26,1
 192 0112 9C92      		st X,r9
 193 0114 8E92      		st -X,r8
 194 0116 1396      		adiw r26,2+1
 195 0118 9C92      		st X,r9
 196 011a 8E92      		st -X,r8
 197 011c 1297      		sbiw r26,2
 198 011e FB01      		movw r30,r22
 199 0120 A486      		std Z+12,r10
 200 0122 B586      		std Z+13,r11
 201 0124 C686      		std Z+14,r12
 202 0126 D786      		std Z+15,r13
 203 0128 1896      		adiw r26,8
 204 012a AD92      		st X+,r10
 205 012c BD92      		st X+,r11
 206 012e CD92      		st X+,r12
 207 0130 DC92      		st X,r13
 208 0132 1B97      		sbiw r26,8+3
 209 0134 4482      		std Z+4,r4
 210 0136 5582      		std Z+5,r5
 211 0138 6682      		std Z+6,r6
 212 013a 7782      		std Z+7,r7
 213 013c D101      		movw r26,r2
 214 013e 1C92      		st X,__zero_reg__
 215               	.L18:
 216 0140 CB01      		movw r24,r22
 217               	/* epilogue start */
 218 0142 DF91      		pop r29
 219 0144 CF91      		pop r28
 220 0146 1F91      		pop r17
 221 0148 0F91      		pop r16
 222 014a FF90      		pop r15
 223 014c EF90      		pop r14
 224 014e DF90      		pop r13
 225 0150 CF90      		pop r12
 226 0152 BF90      		pop r11
 227 0154 AF90      		pop r10
 228 0156 9F90      		pop r9
GAS LISTING /tmp/ccczQxbi.s 			page 5


 229 0158 8F90      		pop r8
 230 015a 7F90      		pop r7
 231 015c 6F90      		pop r6
 232 015e 5F90      		pop r5
 233 0160 4F90      		pop r4
 234 0162 3F90      		pop r3
 235 0164 2F90      		pop r2
 236 0166 0895      		ret
 237               	.L23:
 238 0168 8EE6      		ldi r24,lo8(110)
 239 016a F101      		movw r30,r2
 240 016c 8083      		st Z,r24
 241 016e 00C0      		rjmp .L18
 242               		.size	OSMemCreate, .-OSMemCreate
 243               	.global	OSMemGet
 244               		.type	OSMemGet, @function
 245               	OSMemGet:
 246 0170 CF93      		push r28
 247 0172 DF93      		push r29
 248               	/* prologue: function */
 249               	/* frame size = 0 */
 250 0174 FC01      		movw r30,r24
 251 0176 EB01      		movw r28,r22
 252               	/* #APP */
 253               	 ;  134 "/home/thinklabs/Micrium/Software/uCOS-II/Source/os_mem.c" 1
 254 0178 F894      		cli
 255               	 ;  0 "" 2
 256               	/* #NOAPP */
 257 017a 2485      		ldd r18,Z+12
 258 017c 3585      		ldd r19,Z+13
 259 017e 4685      		ldd r20,Z+14
 260 0180 5785      		ldd r21,Z+15
 261 0182 2115      		cp r18,__zero_reg__
 262 0184 3105      		cpc r19,__zero_reg__
 263 0186 4105      		cpc r20,__zero_reg__
 264 0188 5105      		cpc r21,__zero_reg__
 265 018a 01F0      		breq .L25
 266 018c A281      		ldd r26,Z+2
 267 018e B381      		ldd r27,Z+3
 268 0190 8D91      		ld r24,X+
 269 0192 9C91      		ld r25,X
 270 0194 1197      		sbiw r26,1
 271 0196 9383      		std Z+3,r25
 272 0198 8283      		std Z+2,r24
 273 019a 2150      		subi r18,lo8(-(-1))
 274 019c 3040      		sbci r19,hi8(-(-1))
 275 019e 4040      		sbci r20,hlo8(-(-1))
 276 01a0 5040      		sbci r21,hhi8(-(-1))
 277 01a2 2487      		std Z+12,r18
 278 01a4 3587      		std Z+13,r19
 279 01a6 4687      		std Z+14,r20
 280 01a8 5787      		std Z+15,r21
 281               	/* #APP */
 282               	 ;  139 "/home/thinklabs/Micrium/Software/uCOS-II/Source/os_mem.c" 1
 283 01aa 7894      		sei
 284               	 ;  0 "" 2
 285               	/* #NOAPP */
GAS LISTING /tmp/ccczQxbi.s 			page 6


 286 01ac 1882      		st Y,__zero_reg__
 287               	.L26:
 288 01ae CD01      		movw r24,r26
 289               	/* epilogue start */
 290 01b0 DF91      		pop r29
 291 01b2 CF91      		pop r28
 292 01b4 0895      		ret
 293               	.L25:
 294               	/* #APP */
 295               	 ;  143 "/home/thinklabs/Micrium/Software/uCOS-II/Source/os_mem.c" 1
 296 01b6 7894      		sei
 297               	 ;  0 "" 2
 298               	/* #NOAPP */
 299 01b8 81E7      		ldi r24,lo8(113)
 300 01ba 8883      		st Y,r24
 301 01bc A0E0      		ldi r26,lo8(0)
 302 01be B0E0      		ldi r27,hi8(0)
 303 01c0 00C0      		rjmp .L26
 304               		.size	OSMemGet, .-OSMemGet
 305               	.global	OSMemPut
 306               		.type	OSMemPut, @function
 307               	OSMemPut:
 308 01c2 CF93      		push r28
 309 01c4 DF93      		push r29
 310               	/* prologue: function */
 311               	/* frame size = 0 */
 312 01c6 FC01      		movw r30,r24
 313 01c8 EB01      		movw r28,r22
 314               	/* #APP */
 315               	 ;  181 "/home/thinklabs/Micrium/Software/uCOS-II/Source/os_mem.c" 1
 316 01ca F894      		cli
 317               	 ;  0 "" 2
 318               	/* #NOAPP */
 319 01cc 2485      		ldd r18,Z+12
 320 01ce 3585      		ldd r19,Z+13
 321 01d0 4685      		ldd r20,Z+14
 322 01d2 5785      		ldd r21,Z+15
 323 01d4 8085      		ldd r24,Z+8
 324 01d6 9185      		ldd r25,Z+9
 325 01d8 A285      		ldd r26,Z+10
 326 01da B385      		ldd r27,Z+11
 327 01dc 2817      		cp r18,r24
 328 01de 3907      		cpc r19,r25
 329 01e0 4A07      		cpc r20,r26
 330 01e2 5B07      		cpc r21,r27
 331 01e4 00F0      		brlo .L29
 332               	/* #APP */
 333               	 ;  183 "/home/thinklabs/Micrium/Software/uCOS-II/Source/os_mem.c" 1
 334 01e6 7894      		sei
 335               	 ;  0 "" 2
 336               	/* #NOAPP */
 337 01e8 82E7      		ldi r24,lo8(114)
 338               	/* epilogue start */
 339 01ea DF91      		pop r29
 340 01ec CF91      		pop r28
 341 01ee 0895      		ret
 342               	.L29:
GAS LISTING /tmp/ccczQxbi.s 			page 7


 343 01f0 8281      		ldd r24,Z+2
 344 01f2 9381      		ldd r25,Z+3
 345 01f4 9983      		std Y+1,r25
 346 01f6 8883      		st Y,r24
 347 01f8 7383      		std Z+3,r23
 348 01fa 6283      		std Z+2,r22
 349 01fc 2F5F      		subi r18,lo8(-(1))
 350 01fe 3F4F      		sbci r19,hi8(-(1))
 351 0200 4F4F      		sbci r20,hlo8(-(1))
 352 0202 5F4F      		sbci r21,hhi8(-(1))
 353 0204 2487      		std Z+12,r18
 354 0206 3587      		std Z+13,r19
 355 0208 4687      		std Z+14,r20
 356 020a 5787      		std Z+15,r21
 357               	/* #APP */
 358               	 ;  189 "/home/thinklabs/Micrium/Software/uCOS-II/Source/os_mem.c" 1
 359 020c 7894      		sei
 360               	 ;  0 "" 2
 361               	/* #NOAPP */
 362 020e 80E0      		ldi r24,lo8(0)
 363 0210 DF91      		pop r29
 364 0212 CF91      		pop r28
 365 0214 0895      		ret
 366               		.size	OSMemPut, .-OSMemPut
 367               	.global	OSMemQuery
 368               		.type	OSMemQuery, @function
 369               	OSMemQuery:
 370 0216 CF93      		push r28
 371 0218 DF93      		push r29
 372               	/* prologue: function */
 373               	/* frame size = 0 */
 374 021a FC01      		movw r30,r24
 375               	/* #APP */
 376               	 ;  227 "/home/thinklabs/Micrium/Software/uCOS-II/Source/os_mem.c" 1
 377 021c F894      		cli
 378               	 ;  0 "" 2
 379               	/* #NOAPP */
 380 021e 8081      		ld r24,Z
 381 0220 9181      		ldd r25,Z+1
 382 0222 DB01      		movw r26,r22
 383 0224 1196      		adiw r26,1
 384 0226 9C93      		st X,r25
 385 0228 8E93      		st -X,r24
 386 022a 8281      		ldd r24,Z+2
 387 022c 9381      		ldd r25,Z+3
 388 022e 1396      		adiw r26,2+1
 389 0230 9C93      		st X,r25
 390 0232 8E93      		st -X,r24
 391 0234 1297      		sbiw r26,2
 392 0236 8481      		ldd r24,Z+4
 393 0238 9581      		ldd r25,Z+5
 394 023a A681      		ldd r26,Z+6
 395 023c B781      		ldd r27,Z+7
 396 023e EB01      		movw r28,r22
 397 0240 8C83      		std Y+4,r24
 398 0242 9D83      		std Y+5,r25
 399 0244 AE83      		std Y+6,r26
GAS LISTING /tmp/ccczQxbi.s 			page 8


 400 0246 BF83      		std Y+7,r27
 401 0248 8085      		ldd r24,Z+8
 402 024a 9185      		ldd r25,Z+9
 403 024c A285      		ldd r26,Z+10
 404 024e B385      		ldd r27,Z+11
 405 0250 8887      		std Y+8,r24
 406 0252 9987      		std Y+9,r25
 407 0254 AA87      		std Y+10,r26
 408 0256 BB87      		std Y+11,r27
 409 0258 2485      		ldd r18,Z+12
 410 025a 3585      		ldd r19,Z+13
 411 025c 4685      		ldd r20,Z+14
 412 025e 5785      		ldd r21,Z+15
 413 0260 FB01      		movw r30,r22
 414 0262 2487      		std Z+12,r18
 415 0264 3587      		std Z+13,r19
 416 0266 4687      		std Z+14,r20
 417 0268 5787      		std Z+15,r21
 418               	/* #APP */
 419               	 ;  233 "/home/thinklabs/Micrium/Software/uCOS-II/Source/os_mem.c" 1
 420 026a 7894      		sei
 421               	 ;  0 "" 2
 422               	/* #NOAPP */
 423 026c 821B      		sub r24,r18
 424 026e 930B      		sbc r25,r19
 425 0270 A40B      		sbc r26,r20
 426 0272 B50B      		sbc r27,r21
 427 0274 888B      		std Y+16,r24
 428 0276 998B      		std Y+17,r25
 429 0278 AA8B      		std Y+18,r26
 430 027a BB8B      		std Y+19,r27
 431 027c 80E0      		ldi r24,lo8(0)
 432               	/* epilogue start */
 433 027e DF91      		pop r29
 434 0280 CF91      		pop r28
 435 0282 0895      		ret
 436               		.size	OSMemQuery, .-OSMemQuery
 437               	.global	OS_MemInit
 438               		.type	OS_MemInit, @function
 439               	OS_MemInit:
 440               	/* prologue: function */
 441               	/* frame size = 0 */
 442 0284 80E0      		ldi r24,lo8(OSMemTbl)
 443 0286 90E0      		ldi r25,hi8(OSMemTbl)
 444 0288 9093 0000 		sts (OSMemFreeList)+1,r25
 445 028c 8093 0000 		sts OSMemFreeList,r24
 446 0290 1092 0000 		sts (OSMemTbl+2)+1,__zero_reg__
 447 0294 1092 0000 		sts OSMemTbl+2,__zero_reg__
 448 0298 1092 0000 		sts (OSMemTbl)+1,__zero_reg__
 449 029c 1092 0000 		sts OSMemTbl,__zero_reg__
 450 02a0 1092 0000 		sts OSMemTbl+12,__zero_reg__
 451 02a4 1092 0000 		sts (OSMemTbl+12)+1,__zero_reg__
 452 02a8 1092 0000 		sts (OSMemTbl+12)+2,__zero_reg__
 453 02ac 1092 0000 		sts (OSMemTbl+12)+3,__zero_reg__
 454 02b0 1092 0000 		sts OSMemTbl+8,__zero_reg__
 455 02b4 1092 0000 		sts (OSMemTbl+8)+1,__zero_reg__
 456 02b8 1092 0000 		sts (OSMemTbl+8)+2,__zero_reg__
GAS LISTING /tmp/ccczQxbi.s 			page 9


 457 02bc 1092 0000 		sts (OSMemTbl+8)+3,__zero_reg__
 458 02c0 1092 0000 		sts OSMemTbl+4,__zero_reg__
 459 02c4 1092 0000 		sts (OSMemTbl+4)+1,__zero_reg__
 460 02c8 1092 0000 		sts (OSMemTbl+4)+2,__zero_reg__
 461 02cc 1092 0000 		sts (OSMemTbl+4)+3,__zero_reg__
 462               	/* epilogue start */
 463 02d0 0895      		ret
 464               		.size	OS_MemInit, .-OS_MemInit
 465               	.global	OSTaskDelReq
 466               		.type	OSTaskDelReq, @function
 467               	OSTaskDelReq:
 468               	/* prologue: function */
 469               	/* frame size = 0 */
 470 02d2 8F3F      		cpi r24,lo8(-1)
 471 02d4 01F0      		breq .L42
 472               	/* #APP */
 473               	 ;  510 "/home/thinklabs/Micrium/Software/uCOS-II/Source/os_task.c" 1
 474 02d6 F894      		cli
 475               	 ;  0 "" 2
 476               	/* #NOAPP */
 477 02d8 E82F      		mov r30,r24
 478 02da F0E0      		ldi r31,lo8(0)
 479 02dc EE0F      		lsl r30
 480 02de FF1F      		rol r31
 481 02e0 E050      		subi r30,lo8(-(OSTCBPrioTbl))
 482 02e2 F040      		sbci r31,hi8(-(OSTCBPrioTbl))
 483 02e4 0190      		ld __tmp_reg__,Z+
 484 02e6 F081      		ld r31,Z
 485 02e8 E02D      		mov r30,__tmp_reg__
 486 02ea 3097      		sbiw r30,0
 487 02ec 01F0      		breq .L43
 488 02ee 8EE3      		ldi r24,lo8(62)
 489 02f0 8687      		std Z+14,r24
 490 02f2 80E0      		ldi r24,lo8(0)
 491               	/* #APP */
 492               	 ;  518 "/home/thinklabs/Micrium/Software/uCOS-II/Source/os_task.c" 1
 493 02f4 7894      		sei
 494               	 ;  0 "" 2
 495               	/* #NOAPP */
 496 02f6 0895      		ret
 497               	.L42:
 498               	/* #APP */
 499               	 ;  505 "/home/thinklabs/Micrium/Software/uCOS-II/Source/os_task.c" 1
 500 02f8 F894      		cli
 501               	 ;  0 "" 2
 502               	/* #NOAPP */
 503 02fa E091 0000 		lds r30,OSTCBCur
 504 02fe F091 0000 		lds r31,(OSTCBCur)+1
 505 0302 8685      		ldd r24,Z+14
 506               	/* #APP */
 507               	 ;  507 "/home/thinklabs/Micrium/Software/uCOS-II/Source/os_task.c" 1
 508 0304 7894      		sei
 509               	 ;  0 "" 2
 510               	/* #NOAPP */
 511 0306 0895      		ret
 512               	.L43:
 513 0308 8BE0      		ldi r24,lo8(11)
GAS LISTING /tmp/ccczQxbi.s 			page 10


 514               	/* #APP */
 515               	 ;  518 "/home/thinklabs/Micrium/Software/uCOS-II/Source/os_task.c" 1
 516 030a 7894      		sei
 517               	 ;  0 "" 2
 518               	/* #NOAPP */
 519 030c 0895      		ret
 520               		.size	OSTaskDelReq, .-OSTaskDelReq
 521               	.global	OS_TCBInit
 522               		.type	OS_TCBInit, @function
 523               	OS_TCBInit:
 524 030e 1F93      		push r17
 525 0310 CF93      		push r28
 526 0312 DF93      		push r29
 527               	/* prologue: function */
 528               	/* frame size = 0 */
 529 0314 182F      		mov r17,r24
 530               	/* #APP */
 531               	 ;  1043 "/home/thinklabs/Micrium/Software/uCOS-II/Source/os_core.c" 1
 532 0316 F894      		cli
 533               	 ;  0 "" 2
 534               	/* #NOAPP */
 535 0318 C091 0000 		lds r28,OSTCBFreeList
 536 031c D091 0000 		lds r29,(OSTCBFreeList)+1
 537 0320 2097      		sbiw r28,0
 538 0322 01F4      		brne .+2
 539 0324 00C0      		rjmp .L45
 540 0326 8A81      		ldd r24,Y+2
 541 0328 9B81      		ldd r25,Y+3
 542 032a 9093 0000 		sts (OSTCBFreeList)+1,r25
 543 032e 8093 0000 		sts OSTCBFreeList,r24
 544               	/* #APP */
 545               	 ;  1047 "/home/thinklabs/Micrium/Software/uCOS-II/Source/os_core.c" 1
 546 0332 7894      		sei
 547               	 ;  0 "" 2
 548               	/* #NOAPP */
 549 0334 7983      		std Y+1,r23
 550 0336 6883      		st Y,r22
 551 0338 1987      		std Y+9,r17
 552 033a 1886      		std Y+8,__zero_reg__
 553 033c 1F82      		std Y+7,__zero_reg__
 554 033e 1E82      		std Y+6,__zero_reg__
 555 0340 1E86      		std Y+14,__zero_reg__
 556 0342 E12F      		mov r30,r17
 557 0344 E695      		lsr r30
 558 0346 E695      		lsr r30
 559 0348 E695      		lsr r30
 560 034a EB87      		std Y+11,r30
 561 034c F0E0      		ldi r31,lo8(0)
 562 034e E050      		subi r30,lo8(-(OSMapTbl))
 563 0350 F040      		sbci r31,hi8(-(OSMapTbl))
 564 0352 8081      		ld r24,Z
 565 0354 8D87      		std Y+13,r24
 566 0356 E12F      		mov r30,r17
 567 0358 E770      		andi r30,lo8(7)
 568 035a EA87      		std Y+10,r30
 569 035c F0E0      		ldi r31,lo8(0)
 570 035e E050      		subi r30,lo8(-(OSMapTbl))
GAS LISTING /tmp/ccczQxbi.s 			page 11


 571 0360 F040      		sbci r31,hi8(-(OSMapTbl))
 572 0362 8081      		ld r24,Z
 573 0364 8C87      		std Y+12,r24
 574 0366 CE01      		movw r24,r28
 575 0368 0E94 0000 		call OSTCBInitHook
 576 036c CE01      		movw r24,r28
 577 036e 0E94 0000 		call OSTaskCreateHook
 578               	/* #APP */
 579               	 ;  1094 "/home/thinklabs/Micrium/Software/uCOS-II/Source/os_core.c" 1
 580 0372 F894      		cli
 581               	 ;  0 "" 2
 582               	/* #NOAPP */
 583 0374 E12F      		mov r30,r17
 584 0376 F0E0      		ldi r31,lo8(0)
 585 0378 EE0F      		lsl r30
 586 037a FF1F      		rol r31
 587 037c E050      		subi r30,lo8(-(OSTCBPrioTbl))
 588 037e F040      		sbci r31,hi8(-(OSTCBPrioTbl))
 589 0380 D183      		std Z+1,r29
 590 0382 C083      		st Z,r28
 591 0384 E091 0000 		lds r30,OSTCBList
 592 0388 F091 0000 		lds r31,(OSTCBList)+1
 593 038c FB83      		std Y+3,r31
 594 038e EA83      		std Y+2,r30
 595 0390 1D82      		std Y+5,__zero_reg__
 596 0392 1C82      		std Y+4,__zero_reg__
 597 0394 3097      		sbiw r30,0
 598 0396 01F0      		breq .L46
 599 0398 D583      		std Z+5,r29
 600 039a C483      		std Z+4,r28
 601               	.L46:
 602 039c D093 0000 		sts (OSTCBList)+1,r29
 603 03a0 C093 0000 		sts OSTCBList,r28
 604 03a4 8091 0000 		lds r24,OSRdyGrp
 605 03a8 9D85      		ldd r25,Y+13
 606 03aa 892B      		or r24,r25
 607 03ac 8093 0000 		sts OSRdyGrp,r24
 608 03b0 EB85      		ldd r30,Y+11
 609 03b2 F0E0      		ldi r31,lo8(0)
 610 03b4 E050      		subi r30,lo8(-(OSRdyTbl))
 611 03b6 F040      		sbci r31,hi8(-(OSRdyTbl))
 612 03b8 8081      		ld r24,Z
 613 03ba 9C85      		ldd r25,Y+12
 614 03bc 892B      		or r24,r25
 615 03be 8083      		st Z,r24
 616               	/* #APP */
 617               	 ;  1104 "/home/thinklabs/Micrium/Software/uCOS-II/Source/os_core.c" 1
 618 03c0 7894      		sei
 619               	 ;  0 "" 2
 620               	/* #NOAPP */
 621 03c2 80E0      		ldi r24,lo8(0)
 622               	/* epilogue start */
 623 03c4 DF91      		pop r29
 624 03c6 CF91      		pop r28
 625 03c8 1F91      		pop r17
 626 03ca 0895      		ret
 627               	.L45:
GAS LISTING /tmp/ccczQxbi.s 			page 12


 628               	/* #APP */
 629               	 ;  1107 "/home/thinklabs/Micrium/Software/uCOS-II/Source/os_core.c" 1
 630 03cc 7894      		sei
 631               	 ;  0 "" 2
 632               	/* #NOAPP */
 633 03ce 86E4      		ldi r24,lo8(70)
 634 03d0 DF91      		pop r29
 635 03d2 CF91      		pop r28
 636 03d4 1F91      		pop r17
 637 03d6 0895      		ret
 638               		.size	OS_TCBInit, .-OS_TCBInit
 639               	.global	OS_TaskIdle
 640               		.type	OS_TaskIdle, @function
 641               	OS_TaskIdle:
 642               	/* prologue: function */
 643               	/* frame size = 0 */
 644               	.L50:
 645               	/* #APP */
 646               	 ;  920 "/home/thinklabs/Micrium/Software/uCOS-II/Source/os_core.c" 1
 647 03d8 F894      		cli
 648               	 ;  0 "" 2
 649               	/* #NOAPP */
 650 03da 8091 0000 		lds r24,OSIdleCtr
 651 03de 9091 0000 		lds r25,(OSIdleCtr)+1
 652 03e2 A091 0000 		lds r26,(OSIdleCtr)+2
 653 03e6 B091 0000 		lds r27,(OSIdleCtr)+3
 654 03ea 0196      		adiw r24,1
 655 03ec A11D      		adc r26,__zero_reg__
 656 03ee B11D      		adc r27,__zero_reg__
 657 03f0 8093 0000 		sts OSIdleCtr,r24
 658 03f4 9093 0000 		sts (OSIdleCtr)+1,r25
 659 03f8 A093 0000 		sts (OSIdleCtr)+2,r26
 660 03fc B093 0000 		sts (OSIdleCtr)+3,r27
 661               	/* #APP */
 662               	 ;  922 "/home/thinklabs/Micrium/Software/uCOS-II/Source/os_core.c" 1
 663 0400 7894      		sei
 664               	 ;  0 "" 2
 665               	/* #NOAPP */
 666 0402 0E94 0000 		call OSTaskIdleHook
 667 0406 00C0      		rjmp .L50
 668               		.size	OS_TaskIdle, .-OS_TaskIdle
 669               	.global	OS_Sched
 670               		.type	OS_Sched, @function
 671               	OS_Sched:
 672               	/* prologue: function */
 673               	/* frame size = 0 */
 674               	/* #APP */
 675               	 ;  877 "/home/thinklabs/Micrium/Software/uCOS-II/Source/os_core.c" 1
 676 0408 F894      		cli
 677               	 ;  0 "" 2
 678               	/* #NOAPP */
 679 040a 8091 0000 		lds r24,OSIntNesting
 680 040e 8823      		tst r24
 681 0410 01F0      		breq .+2
 682 0412 00C0      		rjmp .L53
 683 0414 8091 0000 		lds r24,OSLockNesting
 684 0418 8823      		tst r24
GAS LISTING /tmp/ccczQxbi.s 			page 13


 685 041a 01F4      		brne .L53
 686 041c E091 0000 		lds r30,OSRdyGrp
 687 0420 F0E0      		ldi r31,lo8(0)
 688 0422 E050      		subi r30,lo8(-(OSUnMapTbl))
 689 0424 F040      		sbci r31,hi8(-(OSUnMapTbl))
 690 0426 8081      		ld r24,Z
 691 0428 E82F      		mov r30,r24
 692 042a F0E0      		ldi r31,lo8(0)
 693 042c E050      		subi r30,lo8(-(OSRdyTbl))
 694 042e F040      		sbci r31,hi8(-(OSRdyTbl))
 695 0430 E081      		ld r30,Z
 696 0432 F0E0      		ldi r31,lo8(0)
 697 0434 E050      		subi r30,lo8(-(OSUnMapTbl))
 698 0436 F040      		sbci r31,hi8(-(OSUnMapTbl))
 699 0438 982F      		mov r25,r24
 700 043a 990F      		lsl r25
 701 043c 990F      		lsl r25
 702 043e 990F      		lsl r25
 703 0440 8081      		ld r24,Z
 704 0442 980F      		add r25,r24
 705 0444 9093 0000 		sts OSPrioHighRdy,r25
 706 0448 8091 0000 		lds r24,OSPrioCur
 707 044c 9817      		cp r25,r24
 708 044e 01F0      		breq .L53
 709 0450 E92F      		mov r30,r25
 710 0452 F0E0      		ldi r31,lo8(0)
 711 0454 EE0F      		lsl r30
 712 0456 FF1F      		rol r31
 713 0458 E050      		subi r30,lo8(-(OSTCBPrioTbl))
 714 045a F040      		sbci r31,hi8(-(OSTCBPrioTbl))
 715 045c 8081      		ld r24,Z
 716 045e 9181      		ldd r25,Z+1
 717 0460 9093 0000 		sts (OSTCBHighRdy)+1,r25
 718 0464 8093 0000 		sts OSTCBHighRdy,r24
 719 0468 8091 0000 		lds r24,OSCtxSwCtr
 720 046c 9091 0000 		lds r25,(OSCtxSwCtr)+1
 721 0470 A091 0000 		lds r26,(OSCtxSwCtr)+2
 722 0474 B091 0000 		lds r27,(OSCtxSwCtr)+3
 723 0478 0196      		adiw r24,1
 724 047a A11D      		adc r26,__zero_reg__
 725 047c B11D      		adc r27,__zero_reg__
 726 047e 8093 0000 		sts OSCtxSwCtr,r24
 727 0482 9093 0000 		sts (OSCtxSwCtr)+1,r25
 728 0486 A093 0000 		sts (OSCtxSwCtr)+2,r26
 729 048a B093 0000 		sts (OSCtxSwCtr)+3,r27
 730 048e 0E94 0000 		call OSCtxSw
 731               	.L53:
 732               	/* #APP */
 733               	 ;  887 "/home/thinklabs/Micrium/Software/uCOS-II/Source/os_core.c" 1
 734 0492 7894      		sei
 735               	 ;  0 "" 2
 736               	/* epilogue start */
 737               	/* #NOAPP */
 738 0494 0895      		ret
 739               		.size	OS_Sched, .-OS_Sched
 740               	.global	OSTimeDly
 741               		.type	OSTimeDly, @function
GAS LISTING /tmp/ccczQxbi.s 			page 14


 742               	OSTimeDly:
 743               	/* prologue: function */
 744               	/* frame size = 0 */
 745 0496 9C01      		movw r18,r24
 746 0498 0097      		sbiw r24,0
 747 049a 01F0      		breq .L58
 748               	/* #APP */
 749               	 ;  43 "/home/thinklabs/Micrium/Software/uCOS-II/Source/os_time.c" 1
 750 049c F894      		cli
 751               	 ;  0 "" 2
 752               	/* #NOAPP */
 753 049e A091 0000 		lds r26,OSTCBCur
 754 04a2 B091 0000 		lds r27,(OSTCBCur)+1
 755 04a6 1B96      		adiw r26,11
 756 04a8 EC91      		ld r30,X
 757 04aa 1B97      		sbiw r26,11
 758 04ac F0E0      		ldi r31,lo8(0)
 759 04ae E050      		subi r30,lo8(-(OSRdyTbl))
 760 04b0 F040      		sbci r31,hi8(-(OSRdyTbl))
 761 04b2 1C96      		adiw r26,12
 762 04b4 8C91      		ld r24,X
 763 04b6 1C97      		sbiw r26,12
 764 04b8 8095      		com r24
 765 04ba 9081      		ld r25,Z
 766 04bc 8923      		and r24,r25
 767 04be 8083      		st Z,r24
 768 04c0 8823      		tst r24
 769 04c2 01F4      		brne .L57
 770 04c4 1D96      		adiw r26,13
 771 04c6 9C91      		ld r25,X
 772 04c8 1D97      		sbiw r26,13
 773 04ca 9095      		com r25
 774 04cc 8091 0000 		lds r24,OSRdyGrp
 775 04d0 8923      		and r24,r25
 776 04d2 8093 0000 		sts OSRdyGrp,r24
 777               	.L57:
 778 04d6 1796      		adiw r26,6+1
 779 04d8 3C93      		st X,r19
 780 04da 2E93      		st -X,r18
 781 04dc 1697      		sbiw r26,6
 782               	/* #APP */
 783               	 ;  48 "/home/thinklabs/Micrium/Software/uCOS-II/Source/os_time.c" 1
 784 04de 7894      		sei
 785               	 ;  0 "" 2
 786               	/* #NOAPP */
 787 04e0 0E94 0000 		call OS_Sched
 788               	.L58:
 789 04e4 0895      		ret
 790               		.size	OSTimeDly, .-OSTimeDly
 791               	.global	OSTimeDlyHMSM
 792               		.type	OSTimeDlyHMSM, @function
 793               	OSTimeDlyHMSM:
 794 04e6 8F92      		push r8
 795 04e8 9F92      		push r9
 796 04ea AF92      		push r10
 797 04ec BF92      		push r11
 798 04ee CF92      		push r12
GAS LISTING /tmp/ccczQxbi.s 			page 15


 799 04f0 DF92      		push r13
 800 04f2 EF92      		push r14
 801 04f4 FF92      		push r15
 802 04f6 0F93      		push r16
 803 04f8 1F93      		push r17
 804 04fa CF93      		push r28
 805 04fc DF93      		push r29
 806               	/* prologue: function */
 807               	/* frame size = 0 */
 808 04fe 882E      		mov r8,r24
 809 0500 162F      		mov r17,r22
 810 0502 942E      		mov r9,r20
 811 0504 8823      		tst r24
 812 0506 01F0      		breq .L70
 813               	.L60:
 814 0508 1C33      		cpi r17,lo8(60)
 815 050a 00F4      		brsh .L71
 816               	.L61:
 817 050c 8BE3      		ldi r24,lo8(59)
 818 050e 8915      		cp r24,r9
 819 0510 00F0      		brlo .L72
 820               	.L62:
 821 0512 93E0      		ldi r25,hi8(1000)
 822 0514 283E      		cpi r18,lo8(1000)
 823 0516 3907      		cpc r19,r25
 824 0518 00F0      		brlo .L64
 825 051a 83E5      		ldi r24,lo8(83)
 826               	.L63:
 827               	/* epilogue start */
 828 051c DF91      		pop r29
 829 051e CF91      		pop r28
 830 0520 1F91      		pop r17
 831 0522 0F91      		pop r16
 832 0524 FF90      		pop r15
 833 0526 EF90      		pop r14
 834 0528 DF90      		pop r13
 835 052a CF90      		pop r12
 836 052c BF90      		pop r11
 837 052e AF90      		pop r10
 838 0530 9F90      		pop r9
 839 0532 8F90      		pop r8
 840 0534 0895      		ret
 841               	.L72:
 842 0536 82E5      		ldi r24,lo8(82)
 843 0538 00C0      		rjmp .L63
 844               	.L70:
 845 053a 6623      		tst r22
 846 053c 01F4      		brne .L60
 847 053e 4423      		tst r20
 848 0540 01F4      		brne .L61
 849 0542 2115      		cp r18,__zero_reg__
 850 0544 3105      		cpc r19,__zero_reg__
 851 0546 01F4      		brne .L62
 852 0548 84E5      		ldi r24,lo8(84)
 853 054a 00C0      		rjmp .L63
 854               	.L71:
 855 054c 81E5      		ldi r24,lo8(81)
GAS LISTING /tmp/ccczQxbi.s 			page 16


 856 054e 00C0      		rjmp .L63
 857               	.L64:
 858 0550 B901      		movw r22,r18
 859 0552 80E0      		ldi r24,lo8(0)
 860 0554 90E0      		ldi r25,hi8(0)
 861 0556 2DE3      		ldi r18,lo8(61)
 862 0558 30E0      		ldi r19,hi8(61)
 863 055a 40E0      		ldi r20,hlo8(61)
 864 055c 50E0      		ldi r21,hhi8(61)
 865 055e 0E94 0000 		call __mulsi3
 866 0562 6851      		subi r22,lo8(-(488))
 867 0564 7E4F      		sbci r23,hi8(-(488))
 868 0566 8F4F      		sbci r24,hlo8(-(488))
 869 0568 9F4F      		sbci r25,hhi8(-(488))
 870 056a 28EE      		ldi r18,lo8(1000)
 871 056c 33E0      		ldi r19,hi8(1000)
 872 056e 40E0      		ldi r20,hlo8(1000)
 873 0570 50E0      		ldi r21,hhi8(1000)
 874 0572 0E94 0000 		call __udivmodsi4
 875 0576 5901      		movw r10,r18
 876 0578 6A01      		movw r12,r20
 877 057a 612F      		mov r22,r17
 878 057c 70E0      		ldi r23,lo8(0)
 879 057e 80E0      		ldi r24,lo8(0)
 880 0580 90E0      		ldi r25,hi8(0)
 881 0582 2CE3      		ldi r18,lo8(60)
 882 0584 30E0      		ldi r19,hi8(60)
 883 0586 40E0      		ldi r20,hlo8(60)
 884 0588 50E0      		ldi r21,hhi8(60)
 885 058a 0E94 0000 		call __mulsi3
 886 058e 7B01      		movw r14,r22
 887 0590 8C01      		movw r16,r24
 888 0592 E90C      		add r14,r9
 889 0594 F11C      		adc r15,__zero_reg__
 890 0596 011D      		adc r16,__zero_reg__
 891 0598 111D      		adc r17,__zero_reg__
 892 059a 682D      		mov r22,r8
 893 059c 70E0      		ldi r23,lo8(0)
 894 059e 80E0      		ldi r24,lo8(0)
 895 05a0 90E0      		ldi r25,hi8(0)
 896 05a2 20E1      		ldi r18,lo8(3600)
 897 05a4 3EE0      		ldi r19,hi8(3600)
 898 05a6 40E0      		ldi r20,hlo8(3600)
 899 05a8 50E0      		ldi r21,hhi8(3600)
 900 05aa 0E94 0000 		call __mulsi3
 901 05ae E60E      		add r14,r22
 902 05b0 F71E      		adc r15,r23
 903 05b2 081F      		adc r16,r24
 904 05b4 191F      		adc r17,r25
 905 05b6 C801      		movw r24,r16
 906 05b8 B701      		movw r22,r14
 907 05ba 2DE3      		ldi r18,lo8(61)
 908 05bc 30E0      		ldi r19,hi8(61)
 909 05be 40E0      		ldi r20,hlo8(61)
 910 05c0 50E0      		ldi r21,hhi8(61)
 911 05c2 0E94 0000 		call __mulsi3
 912 05c6 A60E      		add r10,r22
GAS LISTING /tmp/ccczQxbi.s 			page 17


 913 05c8 B71E      		adc r11,r23
 914 05ca C81E      		adc r12,r24
 915 05cc D91E      		adc r13,r25
 916 05ce 7601      		movw r14,r12
 917 05d0 0027      		clr r16
 918 05d2 1127      		clr r17
 919 05d4 E701      		movw r28,r14
 920 05d6 8FEF      		ldi r24,lo8(65535)
 921 05d8 9FEF      		ldi r25,hi8(65535)
 922 05da A0E0      		ldi r26,hlo8(65535)
 923 05dc B0E0      		ldi r27,hhi8(65535)
 924 05de A822      		and r10,r24
 925 05e0 B922      		and r11,r25
 926 05e2 CA22      		and r12,r26
 927 05e4 DB22      		and r13,r27
 928 05e6 C501      		movw r24,r10
 929 05e8 0E94 0000 		call OSTimeDly
 930 05ec EF28      		or r14,r15
 931 05ee 01F0      		breq .L65
 932               	.L68:
 933 05f0 80E0      		ldi r24,lo8(-32768)
 934 05f2 90E8      		ldi r25,hi8(-32768)
 935 05f4 0E94 0000 		call OSTimeDly
 936 05f8 80E0      		ldi r24,lo8(-32768)
 937 05fa 90E8      		ldi r25,hi8(-32768)
 938 05fc 0E94 0000 		call OSTimeDly
 939 0600 2197      		sbiw r28,1
 940 0602 01F4      		brne .L68
 941               	.L65:
 942 0604 80E0      		ldi r24,lo8(0)
 943 0606 00C0      		rjmp .L63
 944               		.size	OSTimeDlyHMSM, .-OSTimeDlyHMSM
 945               	.global	OSTaskSuspend
 946               		.type	OSTaskSuspend, @function
 947               	OSTaskSuspend:
 948               	/* prologue: function */
 949               	/* frame size = 0 */
 950               	/* #APP */
 951               	 ;  686 "/home/thinklabs/Micrium/Software/uCOS-II/Source/os_task.c" 1
 952 0608 F894      		cli
 953               	 ;  0 "" 2
 954               	/* #NOAPP */
 955 060a 8F3F      		cpi r24,lo8(-1)
 956 060c 01F0      		breq .L82
 957 060e E091 0000 		lds r30,OSTCBCur
 958 0612 F091 0000 		lds r31,(OSTCBCur)+1
 959 0616 E185      		ldd r30,Z+9
 960 0618 E817      		cp r30,r24
 961 061a 01F0      		breq .L76
 962 061c E82F      		mov r30,r24
 963 061e 20E0      		ldi r18,lo8(0)
 964               	.L75:
 965 0620 F0E0      		ldi r31,lo8(0)
 966 0622 EE0F      		lsl r30
 967 0624 FF1F      		rol r31
 968 0626 E050      		subi r30,lo8(-(OSTCBPrioTbl))
 969 0628 F040      		sbci r31,hi8(-(OSTCBPrioTbl))
GAS LISTING /tmp/ccczQxbi.s 			page 18


 970 062a A081      		ld r26,Z
 971 062c B181      		ldd r27,Z+1
 972 062e 1097      		sbiw r26,0
 973 0630 01F0      		breq .L83
 974 0632 1B96      		adiw r26,11
 975 0634 EC91      		ld r30,X
 976 0636 1B97      		sbiw r26,11
 977 0638 F0E0      		ldi r31,lo8(0)
 978 063a E050      		subi r30,lo8(-(OSRdyTbl))
 979 063c F040      		sbci r31,hi8(-(OSRdyTbl))
 980 063e 1C96      		adiw r26,12
 981 0640 8C91      		ld r24,X
 982 0642 1C97      		sbiw r26,12
 983 0644 8095      		com r24
 984 0646 9081      		ld r25,Z
 985 0648 8923      		and r24,r25
 986 064a 8083      		st Z,r24
 987 064c 8823      		tst r24
 988 064e 01F4      		brne .L79
 989 0650 1D96      		adiw r26,13
 990 0652 9C91      		ld r25,X
 991 0654 1D97      		sbiw r26,13
 992 0656 9095      		com r25
 993 0658 8091 0000 		lds r24,OSRdyGrp
 994 065c 8923      		and r24,r25
 995 065e 8093 0000 		sts OSRdyGrp,r24
 996               	.L79:
 997 0662 1896      		adiw r26,8
 998 0664 8C91      		ld r24,X
 999 0666 1897      		sbiw r26,8
 1000 0668 8860      		ori r24,lo8(8)
 1001 066a 1896      		adiw r26,8
 1002 066c 8C93      		st X,r24
 1003               	/* #APP */
 1004               	 ;  704 "/home/thinklabs/Micrium/Software/uCOS-II/Source/os_task.c" 1
 1005 066e 7894      		sei
 1006               	 ;  0 "" 2
 1007               	/* #NOAPP */
 1008 0670 2130      		cpi r18,lo8(1)
 1009 0672 01F0      		breq .L80
 1010 0674 80E0      		ldi r24,lo8(0)
 1011 0676 0895      		ret
 1012               	.L76:
 1013 0678 21E0      		ldi r18,lo8(1)
 1014 067a 00C0      		rjmp .L75
 1015               	.L82:
 1016 067c E091 0000 		lds r30,OSTCBCur
 1017 0680 F091 0000 		lds r31,(OSTCBCur)+1
 1018 0684 E185      		ldd r30,Z+9
 1019 0686 21E0      		ldi r18,lo8(1)
 1020 0688 00C0      		rjmp .L75
 1021               	.L83:
 1022               	/* #APP */
 1023               	 ;  697 "/home/thinklabs/Micrium/Software/uCOS-II/Source/os_task.c" 1
 1024 068a 7894      		sei
 1025               	 ;  0 "" 2
 1026               	/* #NOAPP */
GAS LISTING /tmp/ccczQxbi.s 			page 19


 1027 068c 8AE5      		ldi r24,lo8(90)
 1028 068e 0895      		ret
 1029               	.L80:
 1030 0690 0E94 0000 		call OS_Sched
 1031 0694 80E0      		ldi r24,lo8(0)
 1032 0696 0895      		ret
 1033               		.size	OSTaskSuspend, .-OSTaskSuspend
 1034               	.global	OSTaskResume
 1035               		.type	OSTaskResume, @function
 1036               	OSTaskResume:
 1037               	/* prologue: function */
 1038               	/* frame size = 0 */
 1039 0698 E82F      		mov r30,r24
 1040               	/* #APP */
 1041               	 ;  554 "/home/thinklabs/Micrium/Software/uCOS-II/Source/os_task.c" 1
 1042 069a F894      		cli
 1043               	 ;  0 "" 2
 1044               	/* #NOAPP */
 1045 069c F0E0      		ldi r31,lo8(0)
 1046 069e EE0F      		lsl r30
 1047 06a0 FF1F      		rol r31
 1048 06a2 E050      		subi r30,lo8(-(OSTCBPrioTbl))
 1049 06a4 F040      		sbci r31,hi8(-(OSTCBPrioTbl))
 1050 06a6 A081      		ld r26,Z
 1051 06a8 B181      		ldd r27,Z+1
 1052 06aa 1097      		sbiw r26,0
 1053 06ac 01F0      		breq .L90
 1054 06ae 1896      		adiw r26,8
 1055 06b0 8C91      		ld r24,X
 1056 06b2 1897      		sbiw r26,8
 1057 06b4 83FD      		sbrc r24,3
 1058 06b6 00C0      		rjmp .L91
 1059               	/* #APP */
 1060               	 ;  572 "/home/thinklabs/Micrium/Software/uCOS-II/Source/os_task.c" 1
 1061 06b8 7894      		sei
 1062               	 ;  0 "" 2
 1063               	/* #NOAPP */
 1064 06ba 85E6      		ldi r24,lo8(101)
 1065 06bc 0895      		ret
 1066               	.L91:
 1067 06be 877F      		andi r24,lo8(-9)
 1068 06c0 1896      		adiw r26,8
 1069 06c2 8C93      		st X,r24
 1070 06c4 1897      		sbiw r26,8
 1071 06c6 8823      		tst r24
 1072 06c8 01F4      		brne .L88
 1073 06ca 1696      		adiw r26,6
 1074 06cc 8D91      		ld r24,X+
 1075 06ce 9C91      		ld r25,X
 1076 06d0 1797      		sbiw r26,6+1
 1077 06d2 892B      		or r24,r25
 1078 06d4 01F0      		breq .L92
 1079               	.L88:
 1080               	/* #APP */
 1081               	 ;  568 "/home/thinklabs/Micrium/Software/uCOS-II/Source/os_task.c" 1
 1082 06d6 7894      		sei
 1083               	 ;  0 "" 2
GAS LISTING /tmp/ccczQxbi.s 			page 20


 1084               	/* #NOAPP */
 1085 06d8 80E0      		ldi r24,lo8(0)
 1086 06da 0895      		ret
 1087               	.L90:
 1088               	/* #APP */
 1089               	 ;  557 "/home/thinklabs/Micrium/Software/uCOS-II/Source/os_task.c" 1
 1090 06dc 7894      		sei
 1091               	 ;  0 "" 2
 1092               	/* #NOAPP */
 1093 06de 84E6      		ldi r24,lo8(100)
 1094 06e0 0895      		ret
 1095               	.L92:
 1096 06e2 8091 0000 		lds r24,OSRdyGrp
 1097 06e6 1D96      		adiw r26,13
 1098 06e8 9C91      		ld r25,X
 1099 06ea 1D97      		sbiw r26,13
 1100 06ec 892B      		or r24,r25
 1101 06ee 8093 0000 		sts OSRdyGrp,r24
 1102 06f2 1B96      		adiw r26,11
 1103 06f4 EC91      		ld r30,X
 1104 06f6 1B97      		sbiw r26,11
 1105 06f8 F0E0      		ldi r31,lo8(0)
 1106 06fa E050      		subi r30,lo8(-(OSRdyTbl))
 1107 06fc F040      		sbci r31,hi8(-(OSRdyTbl))
 1108 06fe 8081      		ld r24,Z
 1109 0700 1C96      		adiw r26,12
 1110 0702 9C91      		ld r25,X
 1111 0704 892B      		or r24,r25
 1112 0706 8083      		st Z,r24
 1113               	/* #APP */
 1114               	 ;  565 "/home/thinklabs/Micrium/Software/uCOS-II/Source/os_task.c" 1
 1115 0708 7894      		sei
 1116               	 ;  0 "" 2
 1117               	/* #NOAPP */
 1118 070a 0E94 0000 		call OS_Sched
 1119 070e 80E0      		ldi r24,lo8(0)
 1120 0710 0895      		ret
 1121               		.size	OSTaskResume, .-OSTaskResume
 1122               	.global	OSTaskDel
 1123               		.type	OSTaskDel, @function
 1124               	OSTaskDel:
 1125 0712 0F93      		push r16
 1126 0714 1F93      		push r17
 1127 0716 CF93      		push r28
 1128 0718 DF93      		push r29
 1129               	/* prologue: function */
 1130               	/* frame size = 0 */
 1131 071a E82F      		mov r30,r24
 1132 071c 8091 0000 		lds r24,OSIntNesting
 1133 0720 8823      		tst r24
 1134 0722 01F0      		breq .+2
 1135 0724 00C0      		rjmp .L104
 1136               	/* #APP */
 1137               	 ;  385 "/home/thinklabs/Micrium/Software/uCOS-II/Source/os_task.c" 1
 1138 0726 F894      		cli
 1139               	 ;  0 "" 2
 1140               	/* #NOAPP */
GAS LISTING /tmp/ccczQxbi.s 			page 21


 1141 0728 EF3F      		cpi r30,lo8(-1)
 1142 072a 01F4      		brne .+2
 1143 072c 00C0      		rjmp .L105
 1144               	.L96:
 1145 072e 0E2F      		mov r16,r30
 1146 0730 10E0      		ldi r17,lo8(0)
 1147 0732 000F      		lsl r16
 1148 0734 111F      		rol r17
 1149 0736 F801      		movw r30,r16
 1150 0738 E050      		subi r30,lo8(-(OSTCBPrioTbl))
 1151 073a F040      		sbci r31,hi8(-(OSTCBPrioTbl))
 1152 073c C081      		ld r28,Z
 1153 073e D181      		ldd r29,Z+1
 1154 0740 2097      		sbiw r28,0
 1155 0742 01F4      		brne .+2
 1156 0744 00C0      		rjmp .L97
 1157 0746 EB85      		ldd r30,Y+11
 1158 0748 F0E0      		ldi r31,lo8(0)
 1159 074a E050      		subi r30,lo8(-(OSRdyTbl))
 1160 074c F040      		sbci r31,hi8(-(OSRdyTbl))
 1161 074e 8C85      		ldd r24,Y+12
 1162 0750 8095      		com r24
 1163 0752 9081      		ld r25,Z
 1164 0754 8923      		and r24,r25
 1165 0756 8083      		st Z,r24
 1166 0758 8823      		tst r24
 1167 075a 01F4      		brne .+2
 1168 075c 00C0      		rjmp .L106
 1169               	.L98:
 1170 075e 1F82      		std Y+7,__zero_reg__
 1171 0760 1E82      		std Y+6,__zero_reg__
 1172 0762 1886      		std Y+8,__zero_reg__
 1173 0764 8091 0000 		lds r24,OSLockNesting
 1174 0768 8F3F      		cpi r24,lo8(-1)
 1175 076a 01F0      		breq .L99
 1176 076c 8F5F      		subi r24,lo8(-(1))
 1177 076e 8093 0000 		sts OSLockNesting,r24
 1178               	.L99:
 1179               	/* #APP */
 1180               	 ;  413 "/home/thinklabs/Micrium/Software/uCOS-II/Source/os_task.c" 1
 1181 0772 7894      		sei
 1182               	 ;  0 "" 2
 1183               	 ;  415 "/home/thinklabs/Micrium/Software/uCOS-II/Source/os_task.c" 1
 1184 0774 F894      		cli
 1185               	 ;  0 "" 2
 1186               	/* #NOAPP */
 1187 0776 8823      		tst r24
 1188 0778 01F4      		brne .L107
 1189               	.L100:
 1190 077a CE01      		movw r24,r28
 1191 077c 0E94 0000 		call OSTaskDelHook
 1192 0780 8091 0000 		lds r24,OSTaskCtr
 1193 0784 8150      		subi r24,lo8(-(-1))
 1194 0786 8093 0000 		sts OSTaskCtr,r24
 1195 078a 0050      		subi r16,lo8(-(OSTCBPrioTbl))
 1196 078c 1040      		sbci r17,hi8(-(OSTCBPrioTbl))
 1197 078e F801      		movw r30,r16
GAS LISTING /tmp/ccczQxbi.s 			page 22


 1198 0790 1182      		std Z+1,__zero_reg__
 1199 0792 1082      		st Z,__zero_reg__
 1200 0794 AC81      		ldd r26,Y+4
 1201 0796 BD81      		ldd r27,Y+5
 1202 0798 1097      		sbiw r26,0
 1203 079a 01F0      		breq .L108
 1204 079c 8A81      		ldd r24,Y+2
 1205 079e 9B81      		ldd r25,Y+3
 1206 07a0 1396      		adiw r26,2+1
 1207 07a2 9C93      		st X,r25
 1208 07a4 8E93      		st -X,r24
 1209 07a6 1297      		sbiw r26,2
 1210 07a8 EA81      		ldd r30,Y+2
 1211 07aa FB81      		ldd r31,Y+3
 1212 07ac B583      		std Z+5,r27
 1213 07ae A483      		std Z+4,r26
 1214               	.L102:
 1215 07b0 8091 0000 		lds r24,OSTCBFreeList
 1216 07b4 9091 0000 		lds r25,(OSTCBFreeList)+1
 1217 07b8 9B83      		std Y+3,r25
 1218 07ba 8A83      		std Y+2,r24
 1219 07bc D093 0000 		sts (OSTCBFreeList)+1,r29
 1220 07c0 C093 0000 		sts OSTCBFreeList,r28
 1221               	/* #APP */
 1222               	 ;  431 "/home/thinklabs/Micrium/Software/uCOS-II/Source/os_task.c" 1
 1223 07c4 7894      		sei
 1224               	 ;  0 "" 2
 1225               	/* #NOAPP */
 1226 07c6 0E94 0000 		call OS_Sched
 1227 07ca 80E0      		ldi r24,lo8(0)
 1228               	/* epilogue start */
 1229 07cc DF91      		pop r29
 1230 07ce CF91      		pop r28
 1231 07d0 1F91      		pop r17
 1232 07d2 0F91      		pop r16
 1233 07d4 0895      		ret
 1234               	.L104:
 1235 07d6 8FE3      		ldi r24,lo8(63)
 1236 07d8 DF91      		pop r29
 1237 07da CF91      		pop r28
 1238 07dc 1F91      		pop r17
 1239 07de 0F91      		pop r16
 1240 07e0 0895      		ret
 1241               	.L107:
 1242 07e2 8150      		subi r24,lo8(-(-1))
 1243 07e4 8093 0000 		sts OSLockNesting,r24
 1244 07e8 00C0      		rjmp .L100
 1245               	.L106:
 1246 07ea 9D85      		ldd r25,Y+13
 1247 07ec 9095      		com r25
 1248 07ee 8091 0000 		lds r24,OSRdyGrp
 1249 07f2 8923      		and r24,r25
 1250 07f4 8093 0000 		sts OSRdyGrp,r24
 1251 07f8 00C0      		rjmp .L98
 1252               	.L105:
 1253 07fa E091 0000 		lds r30,OSTCBCur
 1254 07fe F091 0000 		lds r31,(OSTCBCur)+1
GAS LISTING /tmp/ccczQxbi.s 			page 23


 1255 0802 E185      		ldd r30,Z+9
 1256 0804 00C0      		rjmp .L96
 1257               	.L97:
 1258               	/* #APP */
 1259               	 ;  435 "/home/thinklabs/Micrium/Software/uCOS-II/Source/os_task.c" 1
 1260 0806 7894      		sei
 1261               	 ;  0 "" 2
 1262               	/* #NOAPP */
 1263 0808 8CE3      		ldi r24,lo8(60)
 1264 080a DF91      		pop r29
 1265 080c CF91      		pop r28
 1266 080e 1F91      		pop r17
 1267 0810 0F91      		pop r16
 1268 0812 0895      		ret
 1269               	.L108:
 1270 0814 EA81      		ldd r30,Y+2
 1271 0816 FB81      		ldd r31,Y+3
 1272 0818 1582      		std Z+5,__zero_reg__
 1273 081a 1482      		std Z+4,__zero_reg__
 1274 081c F093 0000 		sts (OSTCBList)+1,r31
 1275 0820 E093 0000 		sts OSTCBList,r30
 1276 0824 00C0      		rjmp .L102
 1277               		.size	OSTaskDel, .-OSTaskDel
 1278               	.global	OSTaskCreate
 1279               		.type	OSTaskCreate, @function
 1280               	OSTaskCreate:
 1281 0826 AF92      		push r10
 1282 0828 BF92      		push r11
 1283 082a CF92      		push r12
 1284 082c DF92      		push r13
 1285 082e EF92      		push r14
 1286 0830 FF92      		push r15
 1287 0832 0F93      		push r16
 1288 0834 1F93      		push r17
 1289 0836 CF93      		push r28
 1290 0838 DF93      		push r29
 1291               	/* prologue: function */
 1292               	/* frame size = 0 */
 1293 083a FC01      		movw r30,r24
 1294 083c 122F      		mov r17,r18
 1295               	/* #APP */
 1296               	 ;  172 "/home/thinklabs/Micrium/Software/uCOS-II/Source/os_task.c" 1
 1297 083e F894      		cli
 1298               	 ;  0 "" 2
 1299               	/* #NOAPP */
 1300 0840 C22F      		mov r28,r18
 1301 0842 D0E0      		ldi r29,lo8(0)
 1302 0844 CC0F      		lsl r28
 1303 0846 DD1F      		rol r29
 1304 0848 C050      		subi r28,lo8(-(OSTCBPrioTbl))
 1305 084a D040      		sbci r29,hi8(-(OSTCBPrioTbl))
 1306 084c 8881      		ld r24,Y
 1307 084e 9981      		ldd r25,Y+1
 1308 0850 892B      		or r24,r25
 1309 0852 01F0      		breq .L114
 1310               	/* #APP */
 1311               	 ;  193 "/home/thinklabs/Micrium/Software/uCOS-II/Source/os_task.c" 1
GAS LISTING /tmp/ccczQxbi.s 			page 24


 1312 0854 7894      		sei
 1313               	 ;  0 "" 2
 1314               	/* #NOAPP */
 1315 0856 18E2      		ldi r17,lo8(40)
 1316               	.L112:
 1317 0858 812F      		mov r24,r17
 1318               	/* epilogue start */
 1319 085a DF91      		pop r29
 1320 085c CF91      		pop r28
 1321 085e 1F91      		pop r17
 1322 0860 0F91      		pop r16
 1323 0862 FF90      		pop r15
 1324 0864 EF90      		pop r14
 1325 0866 DF90      		pop r13
 1326 0868 CF90      		pop r12
 1327 086a BF90      		pop r11
 1328 086c AF90      		pop r10
 1329 086e 0895      		ret
 1330               	.L114:
 1331 0870 81E0      		ldi r24,lo8(1)
 1332 0872 90E0      		ldi r25,hi8(1)
 1333 0874 9983      		std Y+1,r25
 1334 0876 8883      		st Y,r24
 1335               	/* #APP */
 1336               	 ;  176 "/home/thinklabs/Micrium/Software/uCOS-II/Source/os_task.c" 1
 1337 0878 7894      		sei
 1338               	 ;  0 "" 2
 1339               	/* #NOAPP */
 1340 087a CF01      		movw r24,r30
 1341 087c 20E0      		ldi r18,lo8(0)
 1342 087e 30E0      		ldi r19,hi8(0)
 1343 0880 0E94 0000 		call OSTaskStkInit
 1344 0884 BC01      		movw r22,r24
 1345 0886 812F      		mov r24,r17
 1346 0888 40E0      		ldi r20,lo8(0)
 1347 088a 50E0      		ldi r21,hi8(0)
 1348 088c 20E0      		ldi r18,lo8(0)
 1349 088e 30E0      		ldi r19,hi8(0)
 1350 0890 EE24      		clr r14
 1351 0892 FF24      		clr r15
 1352 0894 8701      		movw r16,r14
 1353 0896 CC24      		clr r12
 1354 0898 DD24      		clr r13
 1355 089a AA24      		clr r10
 1356 089c BB24      		clr r11
 1357 089e 0E94 0000 		call OS_TCBInit
 1358 08a2 182F      		mov r17,r24
 1359 08a4 8823      		tst r24
 1360 08a6 01F4      		brne .L111
 1361               	/* #APP */
 1362               	 ;  180 "/home/thinklabs/Micrium/Software/uCOS-II/Source/os_task.c" 1
 1363 08a8 F894      		cli
 1364               	 ;  0 "" 2
 1365               	/* #NOAPP */
 1366 08aa 8091 0000 		lds r24,OSTaskCtr
 1367 08ae 8F5F      		subi r24,lo8(-(1))
 1368 08b0 8093 0000 		sts OSTaskCtr,r24
GAS LISTING /tmp/ccczQxbi.s 			page 25


 1369               	/* #APP */
 1370               	 ;  182 "/home/thinklabs/Micrium/Software/uCOS-II/Source/os_task.c" 1
 1371 08b4 7894      		sei
 1372               	 ;  0 "" 2
 1373               	/* #NOAPP */
 1374 08b6 8091 0000 		lds r24,OSRunning
 1375 08ba 8130      		cpi r24,lo8(1)
 1376 08bc 01F4      		brne .L112
 1377 08be 0E94 0000 		call OS_Sched
 1378 08c2 00C0      		rjmp .L112
 1379               	.L111:
 1380               	/* #APP */
 1381               	 ;  187 "/home/thinklabs/Micrium/Software/uCOS-II/Source/os_task.c" 1
 1382 08c4 F894      		cli
 1383               	 ;  0 "" 2
 1384               	/* #NOAPP */
 1385 08c6 1982      		std Y+1,__zero_reg__
 1386 08c8 1882      		st Y,__zero_reg__
 1387               	/* #APP */
 1388               	 ;  189 "/home/thinklabs/Micrium/Software/uCOS-II/Source/os_task.c" 1
 1389 08ca 7894      		sei
 1390               	 ;  0 "" 2
 1391               	/* #NOAPP */
 1392 08cc 00C0      		rjmp .L112
 1393               		.size	OSTaskCreate, .-OSTaskCreate
 1394               	.global	OSSchedUnlock
 1395               		.type	OSSchedUnlock, @function
 1396               	OSSchedUnlock:
 1397               	/* prologue: function */
 1398               	/* frame size = 0 */
 1399 08ce 8091 0000 		lds r24,OSRunning
 1400 08d2 8130      		cpi r24,lo8(1)
 1401 08d4 01F0      		breq .L120
 1402 08d6 0895      		ret
 1403               	.L120:
 1404               	/* #APP */
 1405               	 ;  256 "/home/thinklabs/Micrium/Software/uCOS-II/Source/os_core.c" 1
 1406 08d8 F894      		cli
 1407               	 ;  0 "" 2
 1408               	/* #NOAPP */
 1409 08da 8091 0000 		lds r24,OSLockNesting
 1410 08de 8823      		tst r24
 1411 08e0 01F0      		breq .L117
 1412 08e2 8150      		subi r24,lo8(-(-1))
 1413 08e4 8093 0000 		sts OSLockNesting,r24
 1414 08e8 8823      		tst r24
 1415 08ea 01F4      		brne .L118
 1416 08ec 8091 0000 		lds r24,OSIntNesting
 1417 08f0 8823      		tst r24
 1418 08f2 01F0      		breq .L121
 1419               	.L118:
 1420               	/* #APP */
 1421               	 ;  263 "/home/thinklabs/Micrium/Software/uCOS-II/Source/os_core.c" 1
 1422 08f4 7894      		sei
 1423               	 ;  0 "" 2
 1424               	/* #NOAPP */
 1425 08f6 0895      		ret
GAS LISTING /tmp/ccczQxbi.s 			page 26


 1426               	.L117:
 1427               	/* #APP */
 1428               	 ;  266 "/home/thinklabs/Micrium/Software/uCOS-II/Source/os_core.c" 1
 1429 08f8 7894      		sei
 1430               	 ;  0 "" 2
 1431               	/* #NOAPP */
 1432 08fa 0895      		ret
 1433               	.L121:
 1434               	/* #APP */
 1435               	 ;  260 "/home/thinklabs/Micrium/Software/uCOS-II/Source/os_core.c" 1
 1436 08fc 7894      		sei
 1437               	 ;  0 "" 2
 1438               	/* #NOAPP */
 1439 08fe 0E94 0000 		call OS_Sched
 1440 0902 0895      		ret
 1441               		.size	OSSchedUnlock, .-OSSchedUnlock
 1442               	.global	OSTimeTick
 1443               		.type	OSTimeTick, @function
 1444               	OSTimeTick:
 1445               	/* prologue: function */
 1446               	/* frame size = 0 */
 1447 0904 0E94 0000 		call OSTimeTickHook
 1448 0908 8091 0000 		lds r24,OSRunning
 1449 090c 8130      		cpi r24,lo8(1)
 1450 090e 01F0      		breq .L129
 1451               	.L127:
 1452 0910 0895      		ret
 1453               	.L129:
 1454 0912 A091 0000 		lds r26,OSTCBList
 1455 0916 B091 0000 		lds r27,(OSTCBList)+1
 1456 091a 1996      		adiw r26,9
 1457 091c 8C91      		ld r24,X
 1458 091e 1997      		sbiw r26,9
 1459 0920 8D33      		cpi r24,lo8(61)
 1460 0922 01F0      		breq .L127
 1461 0924 2091 0000 		lds r18,OSRdyGrp
 1462 0928 41E0      		ldi r20,lo8(1)
 1463 092a 50E0      		ldi r21,hi8(1)
 1464 092c 00C0      		rjmp .L126
 1465               	.L131:
 1466 092e 1D96      		adiw r26,13
 1467 0930 8C91      		ld r24,X
 1468 0932 1D97      		sbiw r26,13
 1469 0934 282B      		or r18,r24
 1470 0936 1B96      		adiw r26,11
 1471 0938 EC91      		ld r30,X
 1472 093a 1B97      		sbiw r26,11
 1473 093c F0E0      		ldi r31,lo8(0)
 1474 093e E050      		subi r30,lo8(-(OSRdyTbl))
 1475 0940 F040      		sbci r31,hi8(-(OSRdyTbl))
 1476 0942 8081      		ld r24,Z
 1477 0944 1C96      		adiw r26,12
 1478 0946 9C91      		ld r25,X
 1479 0948 1C97      		sbiw r26,12
 1480 094a 892B      		or r24,r25
 1481 094c 8083      		st Z,r24
 1482               	.L124:
GAS LISTING /tmp/ccczQxbi.s 			page 27


 1483 094e 1296      		adiw r26,2
 1484 0950 0D90      		ld __tmp_reg__,X+
 1485 0952 BC91      		ld r27,X
 1486 0954 A02D      		mov r26,__tmp_reg__
 1487               	/* #APP */
 1488               	 ;  393 "/home/thinklabs/Micrium/Software/uCOS-II/Source/os_core.c" 1
 1489 0956 7894      		sei
 1490               	 ;  0 "" 2
 1491               	/* #NOAPP */
 1492 0958 1996      		adiw r26,9
 1493 095a 8C91      		ld r24,X
 1494 095c 1997      		sbiw r26,9
 1495 095e 8D33      		cpi r24,lo8(61)
 1496 0960 01F0      		breq .L130
 1497               	.L126:
 1498               	/* #APP */
 1499               	 ;  381 "/home/thinklabs/Micrium/Software/uCOS-II/Source/os_core.c" 1
 1500 0962 F894      		cli
 1501               	 ;  0 "" 2
 1502               	/* #NOAPP */
 1503 0964 1696      		adiw r26,6
 1504 0966 8D91      		ld r24,X+
 1505 0968 9C91      		ld r25,X
 1506 096a 1797      		sbiw r26,6+1
 1507 096c 0097      		sbiw r24,0
 1508 096e 01F0      		breq .L124
 1509 0970 0197      		sbiw r24,1
 1510 0972 1796      		adiw r26,6+1
 1511 0974 9C93      		st X,r25
 1512 0976 8E93      		st -X,r24
 1513 0978 1697      		sbiw r26,6
 1514 097a 892B      		or r24,r25
 1515 097c 01F4      		brne .L124
 1516 097e 1896      		adiw r26,8
 1517 0980 8C91      		ld r24,X
 1518 0982 1897      		sbiw r26,8
 1519 0984 83FF      		sbrs r24,3
 1520 0986 00C0      		rjmp .L131
 1521 0988 1796      		adiw r26,6+1
 1522 098a 5C93      		st X,r21
 1523 098c 4E93      		st -X,r20
 1524 098e 1697      		sbiw r26,6
 1525 0990 00C0      		rjmp .L124
 1526               	.L130:
 1527 0992 2093 0000 		sts OSRdyGrp,r18
 1528 0996 0895      		ret
 1529               		.size	OSTimeTick, .-OSTimeTick
 1530               	.global	OSStart
 1531               		.type	OSStart, @function
 1532               	OSStart:
 1533               	/* prologue: function */
 1534               	/* frame size = 0 */
 1535 0998 8091 0000 		lds r24,OSRunning
 1536 099c 8111      		cpse r24,__zero_reg__
 1537 099e 0895      		ret
 1538               	.L135:
 1539 09a0 E091 0000 		lds r30,OSRdyGrp
GAS LISTING /tmp/ccczQxbi.s 			page 28


 1540 09a4 F0E0      		ldi r31,lo8(0)
 1541 09a6 E050      		subi r30,lo8(-(OSUnMapTbl))
 1542 09a8 F040      		sbci r31,hi8(-(OSUnMapTbl))
 1543 09aa A081      		ld r26,Z
 1544 09ac EA2F      		mov r30,r26
 1545 09ae F0E0      		ldi r31,lo8(0)
 1546 09b0 E050      		subi r30,lo8(-(OSRdyTbl))
 1547 09b2 F040      		sbci r31,hi8(-(OSRdyTbl))
 1548 09b4 E081      		ld r30,Z
 1549 09b6 F0E0      		ldi r31,lo8(0)
 1550 09b8 E050      		subi r30,lo8(-(OSUnMapTbl))
 1551 09ba F040      		sbci r31,hi8(-(OSUnMapTbl))
 1552 09bc AA0F      		lsl r26
 1553 09be AA0F      		lsl r26
 1554 09c0 AA0F      		lsl r26
 1555 09c2 8081      		ld r24,Z
 1556 09c4 A80F      		add r26,r24
 1557 09c6 A093 0000 		sts OSPrioHighRdy,r26
 1558 09ca A093 0000 		sts OSPrioCur,r26
 1559 09ce B0E0      		ldi r27,lo8(0)
 1560 09d0 AA0F      		lsl r26
 1561 09d2 BB1F      		rol r27
 1562 09d4 A050      		subi r26,lo8(-(OSTCBPrioTbl))
 1563 09d6 B040      		sbci r27,hi8(-(OSTCBPrioTbl))
 1564 09d8 8D91      		ld r24,X+
 1565 09da 9C91      		ld r25,X
 1566 09dc 9093 0000 		sts (OSTCBHighRdy)+1,r25
 1567 09e0 8093 0000 		sts OSTCBHighRdy,r24
 1568 09e4 9093 0000 		sts (OSTCBCur)+1,r25
 1569 09e8 8093 0000 		sts OSTCBCur,r24
 1570 09ec 0E94 0000 		call OSStartHighRdy
 1571 09f0 0895      		ret
 1572               		.size	OSStart, .-OSStart
 1573               	.global	OSIntExit
 1574               		.type	OSIntExit, @function
 1575               	OSIntExit:
 1576               	/* prologue: function */
 1577               	/* frame size = 0 */
 1578 09f2 8091 0000 		lds r24,OSRunning
 1579 09f6 8130      		cpi r24,lo8(1)
 1580 09f8 01F0      		breq .L141
 1581 09fa 0895      		ret
 1582               	.L141:
 1583               	/* #APP */
 1584               	 ;  180 "/home/thinklabs/Micrium/Software/uCOS-II/Source/os_core.c" 1
 1585 09fc F894      		cli
 1586               	 ;  0 "" 2
 1587               	/* #NOAPP */
 1588 09fe 8091 0000 		lds r24,OSIntNesting
 1589 0a02 8823      		tst r24
 1590 0a04 01F0      		breq .L138
 1591 0a06 8150      		subi r24,lo8(-(-1))
 1592 0a08 8093 0000 		sts OSIntNesting,r24
 1593 0a0c 8823      		tst r24
 1594 0a0e 01F0      		breq .L138
 1595               	.L139:
 1596               	/* #APP */
GAS LISTING /tmp/ccczQxbi.s 			page 29


 1597               	 ;  193 "/home/thinklabs/Micrium/Software/uCOS-II/Source/os_core.c" 1
 1598 0a10 7894      		sei
 1599               	 ;  0 "" 2
 1600               	/* #NOAPP */
 1601 0a12 0895      		ret
 1602               	.L138:
 1603 0a14 8091 0000 		lds r24,OSLockNesting
 1604 0a18 8823      		tst r24
 1605 0a1a 01F4      		brne .L139
 1606 0a1c E091 0000 		lds r30,OSRdyGrp
 1607 0a20 F0E0      		ldi r31,lo8(0)
 1608 0a22 E050      		subi r30,lo8(-(OSUnMapTbl))
 1609 0a24 F040      		sbci r31,hi8(-(OSUnMapTbl))
 1610 0a26 8081      		ld r24,Z
 1611 0a28 8093 0000 		sts OSIntExitY,r24
 1612 0a2c E82F      		mov r30,r24
 1613 0a2e F0E0      		ldi r31,lo8(0)
 1614 0a30 E050      		subi r30,lo8(-(OSRdyTbl))
 1615 0a32 F040      		sbci r31,hi8(-(OSRdyTbl))
 1616 0a34 E081      		ld r30,Z
 1617 0a36 F0E0      		ldi r31,lo8(0)
 1618 0a38 E050      		subi r30,lo8(-(OSUnMapTbl))
 1619 0a3a F040      		sbci r31,hi8(-(OSUnMapTbl))
 1620 0a3c 982F      		mov r25,r24
 1621 0a3e 990F      		lsl r25
 1622 0a40 990F      		lsl r25
 1623 0a42 990F      		lsl r25
 1624 0a44 8081      		ld r24,Z
 1625 0a46 980F      		add r25,r24
 1626 0a48 9093 0000 		sts OSPrioHighRdy,r25
 1627 0a4c 8091 0000 		lds r24,OSPrioCur
 1628 0a50 9817      		cp r25,r24
 1629 0a52 01F0      		breq .L139
 1630 0a54 E92F      		mov r30,r25
 1631 0a56 F0E0      		ldi r31,lo8(0)
 1632 0a58 EE0F      		lsl r30
 1633 0a5a FF1F      		rol r31
 1634 0a5c E050      		subi r30,lo8(-(OSTCBPrioTbl))
 1635 0a5e F040      		sbci r31,hi8(-(OSTCBPrioTbl))
 1636 0a60 8081      		ld r24,Z
 1637 0a62 9181      		ldd r25,Z+1
 1638 0a64 9093 0000 		sts (OSTCBHighRdy)+1,r25
 1639 0a68 8093 0000 		sts OSTCBHighRdy,r24
 1640 0a6c 8091 0000 		lds r24,OSCtxSwCtr
 1641 0a70 9091 0000 		lds r25,(OSCtxSwCtr)+1
 1642 0a74 A091 0000 		lds r26,(OSCtxSwCtr)+2
 1643 0a78 B091 0000 		lds r27,(OSCtxSwCtr)+3
 1644 0a7c 0196      		adiw r24,1
 1645 0a7e A11D      		adc r26,__zero_reg__
 1646 0a80 B11D      		adc r27,__zero_reg__
 1647 0a82 8093 0000 		sts OSCtxSwCtr,r24
 1648 0a86 9093 0000 		sts (OSCtxSwCtr)+1,r25
 1649 0a8a A093 0000 		sts (OSCtxSwCtr)+2,r26
 1650 0a8e B093 0000 		sts (OSCtxSwCtr)+3,r27
 1651 0a92 0E94 0000 		call OSIntCtxSw
 1652 0a96 00C0      		rjmp .L139
 1653               		.size	OSIntExit, .-OSIntExit
GAS LISTING /tmp/ccczQxbi.s 			page 30


 1654               	.global	OSInit
 1655               		.type	OSInit, @function
 1656               	OSInit:
 1657               	/* prologue: function */
 1658               	/* frame size = 0 */
 1659 0a98 0E94 0000 		call OSInitHookBegin
 1660 0a9c 1092 0000 		sts OSIntNesting,__zero_reg__
 1661 0aa0 1092 0000 		sts OSLockNesting,__zero_reg__
 1662 0aa4 1092 0000 		sts OSTaskCtr,__zero_reg__
 1663 0aa8 1092 0000 		sts OSRunning,__zero_reg__
 1664 0aac 1092 0000 		sts OSCtxSwCtr,__zero_reg__
 1665 0ab0 1092 0000 		sts (OSCtxSwCtr)+1,__zero_reg__
 1666 0ab4 1092 0000 		sts (OSCtxSwCtr)+2,__zero_reg__
 1667 0ab8 1092 0000 		sts (OSCtxSwCtr)+3,__zero_reg__
 1668 0abc 1092 0000 		sts OSIdleCtr,__zero_reg__
 1669 0ac0 1092 0000 		sts (OSIdleCtr)+1,__zero_reg__
 1670 0ac4 1092 0000 		sts (OSIdleCtr)+2,__zero_reg__
 1671 0ac8 1092 0000 		sts (OSIdleCtr)+3,__zero_reg__
 1672 0acc 1092 0000 		sts OSRdyGrp,__zero_reg__
 1673 0ad0 E0E0      		ldi r30,lo8(OSRdyTbl)
 1674 0ad2 F0E0      		ldi r31,hi8(OSRdyTbl)
 1675               	.L143:
 1676 0ad4 1192      		st Z+,__zero_reg__
 1677 0ad6 80E0      		ldi r24,hi8(OSRdyTbl+8)
 1678 0ad8 E030      		cpi r30,lo8(OSRdyTbl+8)
 1679 0ada F807      		cpc r31,r24
 1680 0adc 01F4      		brne .L143
 1681 0ade 1092 0000 		sts OSPrioCur,__zero_reg__
 1682 0ae2 1092 0000 		sts OSPrioHighRdy,__zero_reg__
 1683 0ae6 1092 0000 		sts (OSTCBHighRdy)+1,__zero_reg__
 1684 0aea 1092 0000 		sts OSTCBHighRdy,__zero_reg__
 1685 0aee 1092 0000 		sts (OSTCBCur)+1,__zero_reg__
 1686 0af2 1092 0000 		sts OSTCBCur,__zero_reg__
 1687 0af6 1092 0000 		sts (OSTCBList)+1,__zero_reg__
 1688 0afa 1092 0000 		sts OSTCBList,__zero_reg__
 1689 0afe E0E0      		ldi r30,lo8(OSTCBPrioTbl)
 1690 0b00 F0E0      		ldi r31,hi8(OSTCBPrioTbl)
 1691               	.L144:
 1692 0b02 1192      		st Z+,__zero_reg__
 1693 0b04 1192      		st Z+,__zero_reg__
 1694 0b06 80E0      		ldi r24,hi8(OSTCBPrioTbl+124)
 1695 0b08 E030      		cpi r30,lo8(OSTCBPrioTbl+124)
 1696 0b0a F807      		cpc r31,r24
 1697 0b0c 01F4      		brne .L144
 1698 0b0e 80E0      		ldi r24,lo8(OSTCBTbl+15)
 1699 0b10 90E0      		ldi r25,hi8(OSTCBTbl+15)
 1700 0b12 9093 0000 		sts (OSTCBTbl+2)+1,r25
 1701 0b16 8093 0000 		sts OSTCBTbl+2,r24
 1702 0b1a 0F96      		adiw r24,15
 1703 0b1c 9093 0000 		sts (OSTCBTbl+17)+1,r25
 1704 0b20 8093 0000 		sts OSTCBTbl+17,r24
 1705 0b24 0F96      		adiw r24,15
 1706 0b26 9093 0000 		sts (OSTCBTbl+32)+1,r25
 1707 0b2a 8093 0000 		sts OSTCBTbl+32,r24
 1708 0b2e 0F96      		adiw r24,15
 1709 0b30 9093 0000 		sts (OSTCBTbl+47)+1,r25
 1710 0b34 8093 0000 		sts OSTCBTbl+47,r24
GAS LISTING /tmp/ccczQxbi.s 			page 31


 1711 0b38 1092 0000 		sts (OSTCBTbl+62)+1,__zero_reg__
 1712 0b3c 1092 0000 		sts OSTCBTbl+62,__zero_reg__
 1713 0b40 CC97      		sbiw r24,60
 1714 0b42 9093 0000 		sts (OSTCBFreeList)+1,r25
 1715 0b46 8093 0000 		sts OSTCBFreeList,r24
 1716 0b4a 80E0      		ldi r24,lo8(OSMemTbl)
 1717 0b4c 90E0      		ldi r25,hi8(OSMemTbl)
 1718 0b4e 9093 0000 		sts (OSMemFreeList)+1,r25
 1719 0b52 8093 0000 		sts OSMemFreeList,r24
 1720 0b56 1092 0000 		sts (OSMemTbl+2)+1,__zero_reg__
 1721 0b5a 1092 0000 		sts OSMemTbl+2,__zero_reg__
 1722 0b5e 1092 0000 		sts (OSMemTbl)+1,__zero_reg__
 1723 0b62 1092 0000 		sts OSMemTbl,__zero_reg__
 1724 0b66 1092 0000 		sts OSMemTbl+12,__zero_reg__
 1725 0b6a 1092 0000 		sts (OSMemTbl+12)+1,__zero_reg__
 1726 0b6e 1092 0000 		sts (OSMemTbl+12)+2,__zero_reg__
 1727 0b72 1092 0000 		sts (OSMemTbl+12)+3,__zero_reg__
 1728 0b76 1092 0000 		sts OSMemTbl+8,__zero_reg__
 1729 0b7a 1092 0000 		sts (OSMemTbl+8)+1,__zero_reg__
 1730 0b7e 1092 0000 		sts (OSMemTbl+8)+2,__zero_reg__
 1731 0b82 1092 0000 		sts (OSMemTbl+8)+3,__zero_reg__
 1732 0b86 1092 0000 		sts OSMemTbl+4,__zero_reg__
 1733 0b8a 1092 0000 		sts (OSMemTbl+4)+1,__zero_reg__
 1734 0b8e 1092 0000 		sts (OSMemTbl+4)+2,__zero_reg__
 1735 0b92 1092 0000 		sts (OSMemTbl+4)+3,__zero_reg__
 1736 0b96 80E0      		ldi r24,lo8(gs(OS_TaskIdle))
 1737 0b98 90E0      		ldi r25,hi8(gs(OS_TaskIdle))
 1738 0b9a 60E0      		ldi r22,lo8(0)
 1739 0b9c 70E0      		ldi r23,hi8(0)
 1740 0b9e 40E0      		ldi r20,lo8(OSTaskIdleStk+127)
 1741 0ba0 50E0      		ldi r21,hi8(OSTaskIdleStk+127)
 1742 0ba2 2DE3      		ldi r18,lo8(61)
 1743 0ba4 0E94 0000 		call OSTaskCreate
 1744 0ba8 0E94 0000 		call OSInitHookEnd
 1745               	/* epilogue start */
 1746 0bac 0895      		ret
 1747               		.size	OSInit, .-OSInit
 1748               	.global	OSMapTbl
 1749               		.data
 1750               		.type	OSMapTbl, @object
 1751               		.size	OSMapTbl, 8
 1752               	OSMapTbl:
 1753 0000 01        		.byte	1
 1754 0001 02        		.byte	2
 1755 0002 04        		.byte	4
 1756 0003 08        		.byte	8
 1757 0004 10        		.byte	16
 1758 0005 20        		.byte	32
 1759 0006 40        		.byte	64
 1760 0007 80        		.byte	-128
 1761               	.global	OSUnMapTbl
 1762               		.type	OSUnMapTbl, @object
 1763               		.size	OSUnMapTbl, 256
 1764               	OSUnMapTbl:
 1765 0008 00        		.byte	0
 1766 0009 00        		.byte	0
 1767 000a 01        		.byte	1
GAS LISTING /tmp/ccczQxbi.s 			page 32


 1768 000b 00        		.byte	0
 1769 000c 02        		.byte	2
 1770 000d 00        		.byte	0
 1771 000e 01        		.byte	1
 1772 000f 00        		.byte	0
 1773 0010 03        		.byte	3
 1774 0011 00        		.byte	0
 1775 0012 01        		.byte	1
 1776 0013 00        		.byte	0
 1777 0014 02        		.byte	2
 1778 0015 00        		.byte	0
 1779 0016 01        		.byte	1
 1780 0017 00        		.byte	0
 1781 0018 04        		.byte	4
 1782 0019 00        		.byte	0
 1783 001a 01        		.byte	1
 1784 001b 00        		.byte	0
 1785 001c 02        		.byte	2
 1786 001d 00        		.byte	0
 1787 001e 01        		.byte	1
 1788 001f 00        		.byte	0
 1789 0020 03        		.byte	3
 1790 0021 00        		.byte	0
 1791 0022 01        		.byte	1
 1792 0023 00        		.byte	0
 1793 0024 02        		.byte	2
 1794 0025 00        		.byte	0
 1795 0026 01        		.byte	1
 1796 0027 00        		.byte	0
 1797 0028 05        		.byte	5
 1798 0029 00        		.byte	0
 1799 002a 01        		.byte	1
 1800 002b 00        		.byte	0
 1801 002c 02        		.byte	2
 1802 002d 00        		.byte	0
 1803 002e 01        		.byte	1
 1804 002f 00        		.byte	0
 1805 0030 03        		.byte	3
 1806 0031 00        		.byte	0
 1807 0032 01        		.byte	1
 1808 0033 00        		.byte	0
 1809 0034 02        		.byte	2
 1810 0035 00        		.byte	0
 1811 0036 01        		.byte	1
 1812 0037 00        		.byte	0
 1813 0038 04        		.byte	4
 1814 0039 00        		.byte	0
 1815 003a 01        		.byte	1
 1816 003b 00        		.byte	0
 1817 003c 02        		.byte	2
 1818 003d 00        		.byte	0
 1819 003e 01        		.byte	1
 1820 003f 00        		.byte	0
 1821 0040 03        		.byte	3
 1822 0041 00        		.byte	0
 1823 0042 01        		.byte	1
 1824 0043 00        		.byte	0
GAS LISTING /tmp/ccczQxbi.s 			page 33


 1825 0044 02        		.byte	2
 1826 0045 00        		.byte	0
 1827 0046 01        		.byte	1
 1828 0047 00        		.byte	0
 1829 0048 06        		.byte	6
 1830 0049 00        		.byte	0
 1831 004a 01        		.byte	1
 1832 004b 00        		.byte	0
 1833 004c 02        		.byte	2
 1834 004d 00        		.byte	0
 1835 004e 01        		.byte	1
 1836 004f 00        		.byte	0
 1837 0050 03        		.byte	3
 1838 0051 00        		.byte	0
 1839 0052 01        		.byte	1
 1840 0053 00        		.byte	0
 1841 0054 02        		.byte	2
 1842 0055 00        		.byte	0
 1843 0056 01        		.byte	1
 1844 0057 00        		.byte	0
 1845 0058 04        		.byte	4
 1846 0059 00        		.byte	0
 1847 005a 01        		.byte	1
 1848 005b 00        		.byte	0
 1849 005c 02        		.byte	2
 1850 005d 00        		.byte	0
 1851 005e 01        		.byte	1
 1852 005f 00        		.byte	0
 1853 0060 03        		.byte	3
 1854 0061 00        		.byte	0
 1855 0062 01        		.byte	1
 1856 0063 00        		.byte	0
 1857 0064 02        		.byte	2
 1858 0065 00        		.byte	0
 1859 0066 01        		.byte	1
 1860 0067 00        		.byte	0
 1861 0068 05        		.byte	5
 1862 0069 00        		.byte	0
 1863 006a 01        		.byte	1
 1864 006b 00        		.byte	0
 1865 006c 02        		.byte	2
 1866 006d 00        		.byte	0
 1867 006e 01        		.byte	1
 1868 006f 00        		.byte	0
 1869 0070 03        		.byte	3
 1870 0071 00        		.byte	0
 1871 0072 01        		.byte	1
 1872 0073 00        		.byte	0
 1873 0074 02        		.byte	2
 1874 0075 00        		.byte	0
 1875 0076 01        		.byte	1
 1876 0077 00        		.byte	0
 1877 0078 04        		.byte	4
 1878 0079 00        		.byte	0
 1879 007a 01        		.byte	1
 1880 007b 00        		.byte	0
 1881 007c 02        		.byte	2
GAS LISTING /tmp/ccczQxbi.s 			page 34


 1882 007d 00        		.byte	0
 1883 007e 01        		.byte	1
 1884 007f 00        		.byte	0
 1885 0080 03        		.byte	3
 1886 0081 00        		.byte	0
 1887 0082 01        		.byte	1
 1888 0083 00        		.byte	0
 1889 0084 02        		.byte	2
 1890 0085 00        		.byte	0
 1891 0086 01        		.byte	1
 1892 0087 00        		.byte	0
 1893 0088 07        		.byte	7
 1894 0089 00        		.byte	0
 1895 008a 01        		.byte	1
 1896 008b 00        		.byte	0
 1897 008c 02        		.byte	2
 1898 008d 00        		.byte	0
 1899 008e 01        		.byte	1
 1900 008f 00        		.byte	0
 1901 0090 03        		.byte	3
 1902 0091 00        		.byte	0
 1903 0092 01        		.byte	1
 1904 0093 00        		.byte	0
 1905 0094 02        		.byte	2
 1906 0095 00        		.byte	0
 1907 0096 01        		.byte	1
 1908 0097 00        		.byte	0
 1909 0098 04        		.byte	4
 1910 0099 00        		.byte	0
 1911 009a 01        		.byte	1
 1912 009b 00        		.byte	0
 1913 009c 02        		.byte	2
 1914 009d 00        		.byte	0
 1915 009e 01        		.byte	1
 1916 009f 00        		.byte	0
 1917 00a0 03        		.byte	3
 1918 00a1 00        		.byte	0
 1919 00a2 01        		.byte	1
 1920 00a3 00        		.byte	0
 1921 00a4 02        		.byte	2
 1922 00a5 00        		.byte	0
 1923 00a6 01        		.byte	1
 1924 00a7 00        		.byte	0
 1925 00a8 05        		.byte	5
 1926 00a9 00        		.byte	0
 1927 00aa 01        		.byte	1
 1928 00ab 00        		.byte	0
 1929 00ac 02        		.byte	2
 1930 00ad 00        		.byte	0
 1931 00ae 01        		.byte	1
 1932 00af 00        		.byte	0
 1933 00b0 03        		.byte	3
 1934 00b1 00        		.byte	0
 1935 00b2 01        		.byte	1
 1936 00b3 00        		.byte	0
 1937 00b4 02        		.byte	2
 1938 00b5 00        		.byte	0
GAS LISTING /tmp/ccczQxbi.s 			page 35


 1939 00b6 01        		.byte	1
 1940 00b7 00        		.byte	0
 1941 00b8 04        		.byte	4
 1942 00b9 00        		.byte	0
 1943 00ba 01        		.byte	1
 1944 00bb 00        		.byte	0
 1945 00bc 02        		.byte	2
 1946 00bd 00        		.byte	0
 1947 00be 01        		.byte	1
 1948 00bf 00        		.byte	0
 1949 00c0 03        		.byte	3
 1950 00c1 00        		.byte	0
 1951 00c2 01        		.byte	1
 1952 00c3 00        		.byte	0
 1953 00c4 02        		.byte	2
 1954 00c5 00        		.byte	0
 1955 00c6 01        		.byte	1
 1956 00c7 00        		.byte	0
 1957 00c8 06        		.byte	6
 1958 00c9 00        		.byte	0
 1959 00ca 01        		.byte	1
 1960 00cb 00        		.byte	0
 1961 00cc 02        		.byte	2
 1962 00cd 00        		.byte	0
 1963 00ce 01        		.byte	1
 1964 00cf 00        		.byte	0
 1965 00d0 03        		.byte	3
 1966 00d1 00        		.byte	0
 1967 00d2 01        		.byte	1
 1968 00d3 00        		.byte	0
 1969 00d4 02        		.byte	2
 1970 00d5 00        		.byte	0
 1971 00d6 01        		.byte	1
 1972 00d7 00        		.byte	0
 1973 00d8 04        		.byte	4
 1974 00d9 00        		.byte	0
 1975 00da 01        		.byte	1
 1976 00db 00        		.byte	0
 1977 00dc 02        		.byte	2
 1978 00dd 00        		.byte	0
 1979 00de 01        		.byte	1
 1980 00df 00        		.byte	0
 1981 00e0 03        		.byte	3
 1982 00e1 00        		.byte	0
 1983 00e2 01        		.byte	1
 1984 00e3 00        		.byte	0
 1985 00e4 02        		.byte	2
 1986 00e5 00        		.byte	0
 1987 00e6 01        		.byte	1
 1988 00e7 00        		.byte	0
 1989 00e8 05        		.byte	5
 1990 00e9 00        		.byte	0
 1991 00ea 01        		.byte	1
 1992 00eb 00        		.byte	0
 1993 00ec 02        		.byte	2
 1994 00ed 00        		.byte	0
 1995 00ee 01        		.byte	1
GAS LISTING /tmp/ccczQxbi.s 			page 36


 1996 00ef 00        		.byte	0
 1997 00f0 03        		.byte	3
 1998 00f1 00        		.byte	0
 1999 00f2 01        		.byte	1
 2000 00f3 00        		.byte	0
 2001 00f4 02        		.byte	2
 2002 00f5 00        		.byte	0
 2003 00f6 01        		.byte	1
 2004 00f7 00        		.byte	0
 2005 00f8 04        		.byte	4
 2006 00f9 00        		.byte	0
 2007 00fa 01        		.byte	1
 2008 00fb 00        		.byte	0
 2009 00fc 02        		.byte	2
 2010 00fd 00        		.byte	0
 2011 00fe 01        		.byte	1
 2012 00ff 00        		.byte	0
 2013 0100 03        		.byte	3
 2014 0101 00        		.byte	0
 2015 0102 01        		.byte	1
 2016 0103 00        		.byte	0
 2017 0104 02        		.byte	2
 2018 0105 00        		.byte	0
 2019 0106 01        		.byte	1
 2020 0107 00        		.byte	0
 2021               		.comm OSCtxSwCtr,4,1
 2022               		.comm OSIntNesting,1,1
 2023               		.comm OSIntExitY,1,1
 2024               		.comm OSLockNesting,1,1
 2025               		.comm OSPrioCur,1,1
 2026               		.comm OSPrioHighRdy,1,1
 2027               		.comm OSRdyGrp,1,1
 2028               		.comm OSRdyTbl,8,1
 2029               		.comm OSRunning,1,1
 2030               		.comm OSTaskCtr,1,1
 2031               		.comm OSIdleCtr,4,1
 2032               		.comm OSTaskIdleStk,128,1
 2033               		.comm OSTCBCur,2,1
 2034               		.comm OSTCBFreeList,2,1
 2035               		.comm OSTCBHighRdy,2,1
 2036               		.comm OSTCBList,2,1
 2037               		.comm OSTCBPrioTbl,124,1
 2038               		.comm OSTCBTbl,75,1
 2039               		.comm OSMemFreeList,2,1
 2040               		.comm OSMemTbl,16,1
GAS LISTING /tmp/ccczQxbi.s 			page 37


DEFINED SYMBOLS
                            *ABS*:00000000 ucos_ii.c
     /tmp/ccczQxbi.s:2      *ABS*:0000003f __SREG__
     /tmp/ccczQxbi.s:3      *ABS*:0000003e __SP_H__
     /tmp/ccczQxbi.s:4      *ABS*:0000003d __SP_L__
     /tmp/ccczQxbi.s:5      *ABS*:00000034 __CCP__
     /tmp/ccczQxbi.s:6      *ABS*:00000000 __tmp_reg__
     /tmp/ccczQxbi.s:7      *ABS*:00000001 __zero_reg__
     /tmp/ccczQxbi.s:13     .text:00000000 OSIntEnter
                            *COM*:00000001 OSRunning
                            *COM*:00000001 OSIntNesting
     /tmp/ccczQxbi.s:31     .text:0000001a OSSchedLock
                            *COM*:00000001 OSLockNesting
     /tmp/ccczQxbi.s:59     .text:00000038 OSVersion
     /tmp/ccczQxbi.s:69     .text:0000003e OS_Dummy
     /tmp/ccczQxbi.s:77     .text:00000040 OSMemCreate
                            *COM*:00000002 OSMemFreeList
     /tmp/ccczQxbi.s:245    .text:00000170 OSMemGet
     /tmp/ccczQxbi.s:307    .text:000001c2 OSMemPut
     /tmp/ccczQxbi.s:369    .text:00000216 OSMemQuery
     /tmp/ccczQxbi.s:439    .text:00000284 OS_MemInit
                            *COM*:00000010 OSMemTbl
     /tmp/ccczQxbi.s:467    .text:000002d2 OSTaskDelReq
                            *COM*:0000007c OSTCBPrioTbl
                            *COM*:00000002 OSTCBCur
     /tmp/ccczQxbi.s:523    .text:0000030e OS_TCBInit
                            *COM*:00000002 OSTCBFreeList
     /tmp/ccczQxbi.s:1752   .data:00000000 OSMapTbl
                            *COM*:00000002 OSTCBList
                            *COM*:00000001 OSRdyGrp
                            *COM*:00000008 OSRdyTbl
     /tmp/ccczQxbi.s:641    .text:000003d8 OS_TaskIdle
                            *COM*:00000004 OSIdleCtr
     /tmp/ccczQxbi.s:671    .text:00000408 OS_Sched
     /tmp/ccczQxbi.s:1764   .data:00000008 OSUnMapTbl
                            *COM*:00000001 OSPrioHighRdy
                            *COM*:00000001 OSPrioCur
                            *COM*:00000002 OSTCBHighRdy
                            *COM*:00000004 OSCtxSwCtr
     /tmp/ccczQxbi.s:742    .text:00000496 OSTimeDly
     /tmp/ccczQxbi.s:793    .text:000004e6 OSTimeDlyHMSM
     /tmp/ccczQxbi.s:947    .text:00000608 OSTaskSuspend
     /tmp/ccczQxbi.s:1036   .text:00000698 OSTaskResume
     /tmp/ccczQxbi.s:1124   .text:00000712 OSTaskDel
                            *COM*:00000001 OSTaskCtr
     /tmp/ccczQxbi.s:1280   .text:00000826 OSTaskCreate
     /tmp/ccczQxbi.s:1396   .text:000008ce OSSchedUnlock
     /tmp/ccczQxbi.s:1444   .text:00000904 OSTimeTick
     /tmp/ccczQxbi.s:1532   .text:00000998 OSStart
     /tmp/ccczQxbi.s:1575   .text:000009f2 OSIntExit
                            *COM*:00000001 OSIntExitY
     /tmp/ccczQxbi.s:1656   .text:00000a98 OSInit
                            *COM*:0000004b OSTCBTbl
                            *COM*:00000080 OSTaskIdleStk

UNDEFINED SYMBOLS
__do_copy_data
GAS LISTING /tmp/ccczQxbi.s 			page 38


__do_clear_bss
OSTCBInitHook
OSTaskCreateHook
OSTaskIdleHook
OSCtxSw
__mulsi3
__udivmodsi4
OSTaskDelHook
OSTaskStkInit
OSTimeTickHook
OSStartHighRdy
OSIntCtxSw
OSInitHookBegin
OSInitHookEnd
